
ded:     file format elf64-x86-64


Disassembly of section .init:

0000000000003000 <_init>:
    3000:	f3 0f 1e fa          	[33mendbr64[0m
    3004:	48 83 ec 08          	[33msub    [0m[35m$[0m[35m0x8[0m,[34m%rsp[0m
    3008:	48 8b 05 c1 ef 00 00 	[33mmov    [0m[35m0xefc1[0m([34m%rip[0m),[34m%rax[0m        # 11fd0 <__gmon_start__@Base>
    300f:	48 85 c0             	[33mtest   [0m[34m%rax[0m,[34m%rax[0m
    3012:	74 02                	[33mje     [0m[35m3016[0m <[32m_init[0m[35m+0x[0m[35m16[0m>
    3014:	ff d0                	[33mcall   [0m*[34m%rax[0m
    3016:	48 83 c4 08          	[33madd    [0m[35m$[0m[35m0x8[0m,[34m%rsp[0m
    301a:	c3                   	[33mret[0m

Disassembly of section .plt:

0000000000003020 <.plt>:
    3020:	ff 35 a2 ed 00 00    	[33mpush   [0m[35m0xeda2[0m([34m%rip[0m)        # 11dc8 <_GLOBAL_OFFSET_TABLE_+0x8>
    3026:	ff 25 a4 ed 00 00    	[33mjmp    [0m*[35m0xeda4[0m([34m%rip[0m)        # 11dd0 <_GLOBAL_OFFSET_TABLE_+0x10>
    302c:	0f 1f 40 00          	[33mnopl   [0m[35m0x0[0m([34m%rax[0m)
    3030:	f3 0f 1e fa          	[33mendbr64[0m
    3034:	68 00 00 00 00       	[33mpush   [0m[35m$[0m[35m0x0[0m
    3039:	e9 e2 ff ff ff       	[33mjmp    [0m[35m3020[0m <[32m_init[0m[35m+0x[0m[35m20[0m>
    303e:	66 90                	[33mxchg   [0m[34m%ax[0m,[34m%ax[0m
    3040:	f3 0f 1e fa          	[33mendbr64[0m
    3044:	68 01 00 00 00       	[33mpush   [0m[35m$[0m[35m0x1[0m
    3049:	e9 d2 ff ff ff       	[33mjmp    [0m[35m3020[0m <[32m_init[0m[35m+0x[0m[35m20[0m>
    304e:	66 90                	[33mxchg   [0m[34m%ax[0m,[34m%ax[0m
    3050:	f3 0f 1e fa          	[33mendbr64[0m
    3054:	68 02 00 00 00       	[33mpush   [0m[35m$[0m[35m0x2[0m
    3059:	e9 c2 ff ff ff       	[33mjmp    [0m[35m3020[0m <[32m_init[0m[35m+0x[0m[35m20[0m>
    305e:	66 90                	[33mxchg   [0m[34m%ax[0m,[34m%ax[0m
    3060:	f3 0f 1e fa          	[33mendbr64[0m
    3064:	68 03 00 00 00       	[33mpush   [0m[35m$[0m[35m0x3[0m
    3069:	e9 b2 ff ff ff       	[33mjmp    [0m[35m3020[0m <[32m_init[0m[35m+0x[0m[35m20[0m>
    306e:	66 90                	[33mxchg   [0m[34m%ax[0m,[34m%ax[0m
    3070:	f3 0f 1e fa          	[33mendbr64[0m
    3074:	68 04 00 00 00       	[33mpush   [0m[35m$[0m[35m0x4[0m
    3079:	e9 a2 ff ff ff       	[33mjmp    [0m[35m3020[0m <[32m_init[0m[35m+0x[0m[35m20[0m>
    307e:	66 90                	[33mxchg   [0m[34m%ax[0m,[34m%ax[0m
    3080:	f3 0f 1e fa          	[33mendbr64[0m
    3084:	68 05 00 00 00       	[33mpush   [0m[35m$[0m[35m0x5[0m
    3089:	e9 92 ff ff ff       	[33mjmp    [0m[35m3020[0m <[32m_init[0m[35m+0x[0m[35m20[0m>
    308e:	66 90                	[33mxchg   [0m[34m%ax[0m,[34m%ax[0m
    3090:	f3 0f 1e fa          	[33mendbr64[0m
    3094:	68 06 00 00 00       	[33mpush   [0m[35m$[0m[35m0x6[0m
    3099:	e9 82 ff ff ff       	[33mjmp    [0m[35m3020[0m <[32m_init[0m[35m+0x[0m[35m20[0m>
    309e:	66 90                	[33mxchg   [0m[34m%ax[0m,[34m%ax[0m
    30a0:	f3 0f 1e fa          	[33mendbr64[0m
    30a4:	68 07 00 00 00       	[33mpush   [0m[35m$[0m[35m0x7[0m
    30a9:	e9 72 ff ff ff       	[33mjmp    [0m[35m3020[0m <[32m_init[0m[35m+0x[0m[35m20[0m>
    30ae:	66 90                	[33mxchg   [0m[34m%ax[0m,[34m%ax[0m
    30b0:	f3 0f 1e fa          	[33mendbr64[0m
    30b4:	68 08 00 00 00       	[33mpush   [0m[35m$[0m[35m0x8[0m
    30b9:	e9 62 ff ff ff       	[33mjmp    [0m[35m3020[0m <[32m_init[0m[35m+0x[0m[35m20[0m>
    30be:	66 90                	[33mxchg   [0m[34m%ax[0m,[34m%ax[0m
    30c0:	f3 0f 1e fa          	[33mendbr64[0m
    30c4:	68 09 00 00 00       	[33mpush   [0m[35m$[0m[35m0x9[0m
    30c9:	e9 52 ff ff ff       	[33mjmp    [0m[35m3020[0m <[32m_init[0m[35m+0x[0m[35m20[0m>
    30ce:	66 90                	[33mxchg   [0m[34m%ax[0m,[34m%ax[0m
    30d0:	f3 0f 1e fa          	[33mendbr64[0m
    30d4:	68 0a 00 00 00       	[33mpush   [0m[35m$[0m[35m0xa[0m
    30d9:	e9 42 ff ff ff       	[33mjmp    [0m[35m3020[0m <[32m_init[0m[35m+0x[0m[35m20[0m>
    30de:	66 90                	[33mxchg   [0m[34m%ax[0m,[34m%ax[0m
    30e0:	f3 0f 1e fa          	[33mendbr64[0m
    30e4:	68 0b 00 00 00       	[33mpush   [0m[35m$[0m[35m0xb[0m
    30e9:	e9 32 ff ff ff       	[33mjmp    [0m[35m3020[0m <[32m_init[0m[35m+0x[0m[35m20[0m>
    30ee:	66 90                	[33mxchg   [0m[34m%ax[0m,[34m%ax[0m
    30f0:	f3 0f 1e fa          	[33mendbr64[0m
    30f4:	68 0c 00 00 00       	[33mpush   [0m[35m$[0m[35m0xc[0m
    30f9:	e9 22 ff ff ff       	[33mjmp    [0m[35m3020[0m <[32m_init[0m[35m+0x[0m[35m20[0m>
    30fe:	66 90                	[33mxchg   [0m[34m%ax[0m,[34m%ax[0m
    3100:	f3 0f 1e fa          	[33mendbr64[0m
    3104:	68 0d 00 00 00       	[33mpush   [0m[35m$[0m[35m0xd[0m
    3109:	e9 12 ff ff ff       	[33mjmp    [0m[35m3020[0m <[32m_init[0m[35m+0x[0m[35m20[0m>
    310e:	66 90                	[33mxchg   [0m[34m%ax[0m,[34m%ax[0m
    3110:	f3 0f 1e fa          	[33mendbr64[0m
    3114:	68 0e 00 00 00       	[33mpush   [0m[35m$[0m[35m0xe[0m
    3119:	e9 02 ff ff ff       	[33mjmp    [0m[35m3020[0m <[32m_init[0m[35m+0x[0m[35m20[0m>
    311e:	66 90                	[33mxchg   [0m[34m%ax[0m,[34m%ax[0m
    3120:	f3 0f 1e fa          	[33mendbr64[0m
    3124:	68 0f 00 00 00       	[33mpush   [0m[35m$[0m[35m0xf[0m
    3129:	e9 f2 fe ff ff       	[33mjmp    [0m[35m3020[0m <[32m_init[0m[35m+0x[0m[35m20[0m>
    312e:	66 90                	[33mxchg   [0m[34m%ax[0m,[34m%ax[0m
    3130:	f3 0f 1e fa          	[33mendbr64[0m
    3134:	68 10 00 00 00       	[33mpush   [0m[35m$[0m[35m0x10[0m
    3139:	e9 e2 fe ff ff       	[33mjmp    [0m[35m3020[0m <[32m_init[0m[35m+0x[0m[35m20[0m>
    313e:	66 90                	[33mxchg   [0m[34m%ax[0m,[34m%ax[0m
    3140:	f3 0f 1e fa          	[33mendbr64[0m
    3144:	68 11 00 00 00       	[33mpush   [0m[35m$[0m[35m0x11[0m
    3149:	e9 d2 fe ff ff       	[33mjmp    [0m[35m3020[0m <[32m_init[0m[35m+0x[0m[35m20[0m>
    314e:	66 90                	[33mxchg   [0m[34m%ax[0m,[34m%ax[0m
    3150:	f3 0f 1e fa          	[33mendbr64[0m
    3154:	68 12 00 00 00       	[33mpush   [0m[35m$[0m[35m0x12[0m
    3159:	e9 c2 fe ff ff       	[33mjmp    [0m[35m3020[0m <[32m_init[0m[35m+0x[0m[35m20[0m>
    315e:	66 90                	[33mxchg   [0m[34m%ax[0m,[34m%ax[0m
    3160:	f3 0f 1e fa          	[33mendbr64[0m
    3164:	68 13 00 00 00       	[33mpush   [0m[35m$[0m[35m0x13[0m
    3169:	e9 b2 fe ff ff       	[33mjmp    [0m[35m3020[0m <[32m_init[0m[35m+0x[0m[35m20[0m>
    316e:	66 90                	[33mxchg   [0m[34m%ax[0m,[34m%ax[0m
    3170:	f3 0f 1e fa          	[33mendbr64[0m
    3174:	68 14 00 00 00       	[33mpush   [0m[35m$[0m[35m0x14[0m
    3179:	e9 a2 fe ff ff       	[33mjmp    [0m[35m3020[0m <[32m_init[0m[35m+0x[0m[35m20[0m>
    317e:	66 90                	[33mxchg   [0m[34m%ax[0m,[34m%ax[0m
    3180:	f3 0f 1e fa          	[33mendbr64[0m
    3184:	68 15 00 00 00       	[33mpush   [0m[35m$[0m[35m0x15[0m
    3189:	e9 92 fe ff ff       	[33mjmp    [0m[35m3020[0m <[32m_init[0m[35m+0x[0m[35m20[0m>
    318e:	66 90                	[33mxchg   [0m[34m%ax[0m,[34m%ax[0m
    3190:	f3 0f 1e fa          	[33mendbr64[0m
    3194:	68 16 00 00 00       	[33mpush   [0m[35m$[0m[35m0x16[0m
    3199:	e9 82 fe ff ff       	[33mjmp    [0m[35m3020[0m <[32m_init[0m[35m+0x[0m[35m20[0m>
    319e:	66 90                	[33mxchg   [0m[34m%ax[0m,[34m%ax[0m
    31a0:	f3 0f 1e fa          	[33mendbr64[0m
    31a4:	68 17 00 00 00       	[33mpush   [0m[35m$[0m[35m0x17[0m
    31a9:	e9 72 fe ff ff       	[33mjmp    [0m[35m3020[0m <[32m_init[0m[35m+0x[0m[35m20[0m>
    31ae:	66 90                	[33mxchg   [0m[34m%ax[0m,[34m%ax[0m
    31b0:	f3 0f 1e fa          	[33mendbr64[0m
    31b4:	68 18 00 00 00       	[33mpush   [0m[35m$[0m[35m0x18[0m
    31b9:	e9 62 fe ff ff       	[33mjmp    [0m[35m3020[0m <[32m_init[0m[35m+0x[0m[35m20[0m>
    31be:	66 90                	[33mxchg   [0m[34m%ax[0m,[34m%ax[0m
    31c0:	f3 0f 1e fa          	[33mendbr64[0m
    31c4:	68 19 00 00 00       	[33mpush   [0m[35m$[0m[35m0x19[0m
    31c9:	e9 52 fe ff ff       	[33mjmp    [0m[35m3020[0m <[32m_init[0m[35m+0x[0m[35m20[0m>
    31ce:	66 90                	[33mxchg   [0m[34m%ax[0m,[34m%ax[0m
    31d0:	f3 0f 1e fa          	[33mendbr64[0m
    31d4:	68 1a 00 00 00       	[33mpush   [0m[35m$[0m[35m0x1a[0m
    31d9:	e9 42 fe ff ff       	[33mjmp    [0m[35m3020[0m <[32m_init[0m[35m+0x[0m[35m20[0m>
    31de:	66 90                	[33mxchg   [0m[34m%ax[0m,[34m%ax[0m
    31e0:	f3 0f 1e fa          	[33mendbr64[0m
    31e4:	68 1b 00 00 00       	[33mpush   [0m[35m$[0m[35m0x1b[0m
    31e9:	e9 32 fe ff ff       	[33mjmp    [0m[35m3020[0m <[32m_init[0m[35m+0x[0m[35m20[0m>
    31ee:	66 90                	[33mxchg   [0m[34m%ax[0m,[34m%ax[0m
    31f0:	f3 0f 1e fa          	[33mendbr64[0m
    31f4:	68 1c 00 00 00       	[33mpush   [0m[35m$[0m[35m0x1c[0m
    31f9:	e9 22 fe ff ff       	[33mjmp    [0m[35m3020[0m <[32m_init[0m[35m+0x[0m[35m20[0m>
    31fe:	66 90                	[33mxchg   [0m[34m%ax[0m,[34m%ax[0m
    3200:	f3 0f 1e fa          	[33mendbr64[0m
    3204:	68 1d 00 00 00       	[33mpush   [0m[35m$[0m[35m0x1d[0m
    3209:	e9 12 fe ff ff       	[33mjmp    [0m[35m3020[0m <[32m_init[0m[35m+0x[0m[35m20[0m>
    320e:	66 90                	[33mxchg   [0m[34m%ax[0m,[34m%ax[0m
    3210:	f3 0f 1e fa          	[33mendbr64[0m
    3214:	68 1e 00 00 00       	[33mpush   [0m[35m$[0m[35m0x1e[0m
    3219:	e9 02 fe ff ff       	[33mjmp    [0m[35m3020[0m <[32m_init[0m[35m+0x[0m[35m20[0m>
    321e:	66 90                	[33mxchg   [0m[34m%ax[0m,[34m%ax[0m
    3220:	f3 0f 1e fa          	[33mendbr64[0m
    3224:	68 1f 00 00 00       	[33mpush   [0m[35m$[0m[35m0x1f[0m
    3229:	e9 f2 fd ff ff       	[33mjmp    [0m[35m3020[0m <[32m_init[0m[35m+0x[0m[35m20[0m>
    322e:	66 90                	[33mxchg   [0m[34m%ax[0m,[34m%ax[0m
    3230:	f3 0f 1e fa          	[33mendbr64[0m
    3234:	68 20 00 00 00       	[33mpush   [0m[35m$[0m[35m0x20[0m
    3239:	e9 e2 fd ff ff       	[33mjmp    [0m[35m3020[0m <[32m_init[0m[35m+0x[0m[35m20[0m>
    323e:	66 90                	[33mxchg   [0m[34m%ax[0m,[34m%ax[0m
    3240:	f3 0f 1e fa          	[33mendbr64[0m
    3244:	68 21 00 00 00       	[33mpush   [0m[35m$[0m[35m0x21[0m
    3249:	e9 d2 fd ff ff       	[33mjmp    [0m[35m3020[0m <[32m_init[0m[35m+0x[0m[35m20[0m>
    324e:	66 90                	[33mxchg   [0m[34m%ax[0m,[34m%ax[0m
    3250:	f3 0f 1e fa          	[33mendbr64[0m
    3254:	68 22 00 00 00       	[33mpush   [0m[35m$[0m[35m0x22[0m
    3259:	e9 c2 fd ff ff       	[33mjmp    [0m[35m3020[0m <[32m_init[0m[35m+0x[0m[35m20[0m>
    325e:	66 90                	[33mxchg   [0m[34m%ax[0m,[34m%ax[0m
    3260:	f3 0f 1e fa          	[33mendbr64[0m
    3264:	68 23 00 00 00       	[33mpush   [0m[35m$[0m[35m0x23[0m
    3269:	e9 b2 fd ff ff       	[33mjmp    [0m[35m3020[0m <[32m_init[0m[35m+0x[0m[35m20[0m>
    326e:	66 90                	[33mxchg   [0m[34m%ax[0m,[34m%ax[0m
    3270:	f3 0f 1e fa          	[33mendbr64[0m
    3274:	68 24 00 00 00       	[33mpush   [0m[35m$[0m[35m0x24[0m
    3279:	e9 a2 fd ff ff       	[33mjmp    [0m[35m3020[0m <[32m_init[0m[35m+0x[0m[35m20[0m>
    327e:	66 90                	[33mxchg   [0m[34m%ax[0m,[34m%ax[0m
    3280:	f3 0f 1e fa          	[33mendbr64[0m
    3284:	68 25 00 00 00       	[33mpush   [0m[35m$[0m[35m0x25[0m
    3289:	e9 92 fd ff ff       	[33mjmp    [0m[35m3020[0m <[32m_init[0m[35m+0x[0m[35m20[0m>
    328e:	66 90                	[33mxchg   [0m[34m%ax[0m,[34m%ax[0m
    3290:	f3 0f 1e fa          	[33mendbr64[0m
    3294:	68 26 00 00 00       	[33mpush   [0m[35m$[0m[35m0x26[0m
    3299:	e9 82 fd ff ff       	[33mjmp    [0m[35m3020[0m <[32m_init[0m[35m+0x[0m[35m20[0m>
    329e:	66 90                	[33mxchg   [0m[34m%ax[0m,[34m%ax[0m
    32a0:	f3 0f 1e fa          	[33mendbr64[0m
    32a4:	68 27 00 00 00       	[33mpush   [0m[35m$[0m[35m0x27[0m
    32a9:	e9 72 fd ff ff       	[33mjmp    [0m[35m3020[0m <[32m_init[0m[35m+0x[0m[35m20[0m>
    32ae:	66 90                	[33mxchg   [0m[34m%ax[0m,[34m%ax[0m
    32b0:	f3 0f 1e fa          	[33mendbr64[0m
    32b4:	68 28 00 00 00       	[33mpush   [0m[35m$[0m[35m0x28[0m
    32b9:	e9 62 fd ff ff       	[33mjmp    [0m[35m3020[0m <[32m_init[0m[35m+0x[0m[35m20[0m>
    32be:	66 90                	[33mxchg   [0m[34m%ax[0m,[34m%ax[0m
    32c0:	f3 0f 1e fa          	[33mendbr64[0m
    32c4:	68 29 00 00 00       	[33mpush   [0m[35m$[0m[35m0x29[0m
    32c9:	e9 52 fd ff ff       	[33mjmp    [0m[35m3020[0m <[32m_init[0m[35m+0x[0m[35m20[0m>
    32ce:	66 90                	[33mxchg   [0m[34m%ax[0m,[34m%ax[0m
    32d0:	f3 0f 1e fa          	[33mendbr64[0m
    32d4:	68 2a 00 00 00       	[33mpush   [0m[35m$[0m[35m0x2a[0m
    32d9:	e9 42 fd ff ff       	[33mjmp    [0m[35m3020[0m <[32m_init[0m[35m+0x[0m[35m20[0m>
    32de:	66 90                	[33mxchg   [0m[34m%ax[0m,[34m%ax[0m
    32e0:	f3 0f 1e fa          	[33mendbr64[0m
    32e4:	68 2b 00 00 00       	[33mpush   [0m[35m$[0m[35m0x2b[0m
    32e9:	e9 32 fd ff ff       	[33mjmp    [0m[35m3020[0m <[32m_init[0m[35m+0x[0m[35m20[0m>
    32ee:	66 90                	[33mxchg   [0m[34m%ax[0m,[34m%ax[0m
    32f0:	f3 0f 1e fa          	[33mendbr64[0m
    32f4:	68 2c 00 00 00       	[33mpush   [0m[35m$[0m[35m0x2c[0m
    32f9:	e9 22 fd ff ff       	[33mjmp    [0m[35m3020[0m <[32m_init[0m[35m+0x[0m[35m20[0m>
    32fe:	66 90                	[33mxchg   [0m[34m%ax[0m,[34m%ax[0m
    3300:	f3 0f 1e fa          	[33mendbr64[0m
    3304:	68 2d 00 00 00       	[33mpush   [0m[35m$[0m[35m0x2d[0m
    3309:	e9 12 fd ff ff       	[33mjmp    [0m[35m3020[0m <[32m_init[0m[35m+0x[0m[35m20[0m>
    330e:	66 90                	[33mxchg   [0m[34m%ax[0m,[34m%ax[0m
    3310:	f3 0f 1e fa          	[33mendbr64[0m
    3314:	68 2e 00 00 00       	[33mpush   [0m[35m$[0m[35m0x2e[0m
    3319:	e9 02 fd ff ff       	[33mjmp    [0m[35m3020[0m <[32m_init[0m[35m+0x[0m[35m20[0m>
    331e:	66 90                	[33mxchg   [0m[34m%ax[0m,[34m%ax[0m
    3320:	f3 0f 1e fa          	[33mendbr64[0m
    3324:	68 2f 00 00 00       	[33mpush   [0m[35m$[0m[35m0x2f[0m
    3329:	e9 f2 fc ff ff       	[33mjmp    [0m[35m3020[0m <[32m_init[0m[35m+0x[0m[35m20[0m>
    332e:	66 90                	[33mxchg   [0m[34m%ax[0m,[34m%ax[0m
    3330:	f3 0f 1e fa          	[33mendbr64[0m
    3334:	68 30 00 00 00       	[33mpush   [0m[35m$[0m[35m0x30[0m
    3339:	e9 e2 fc ff ff       	[33mjmp    [0m[35m3020[0m <[32m_init[0m[35m+0x[0m[35m20[0m>
    333e:	66 90                	[33mxchg   [0m[34m%ax[0m,[34m%ax[0m
    3340:	f3 0f 1e fa          	[33mendbr64[0m
    3344:	68 31 00 00 00       	[33mpush   [0m[35m$[0m[35m0x31[0m
    3349:	e9 d2 fc ff ff       	[33mjmp    [0m[35m3020[0m <[32m_init[0m[35m+0x[0m[35m20[0m>
    334e:	66 90                	[33mxchg   [0m[34m%ax[0m,[34m%ax[0m
    3350:	f3 0f 1e fa          	[33mendbr64[0m
    3354:	68 32 00 00 00       	[33mpush   [0m[35m$[0m[35m0x32[0m
    3359:	e9 c2 fc ff ff       	[33mjmp    [0m[35m3020[0m <[32m_init[0m[35m+0x[0m[35m20[0m>
    335e:	66 90                	[33mxchg   [0m[34m%ax[0m,[34m%ax[0m
    3360:	f3 0f 1e fa          	[33mendbr64[0m
    3364:	68 33 00 00 00       	[33mpush   [0m[35m$[0m[35m0x33[0m
    3369:	e9 b2 fc ff ff       	[33mjmp    [0m[35m3020[0m <[32m_init[0m[35m+0x[0m[35m20[0m>
    336e:	66 90                	[33mxchg   [0m[34m%ax[0m,[34m%ax[0m
    3370:	f3 0f 1e fa          	[33mendbr64[0m
    3374:	68 34 00 00 00       	[33mpush   [0m[35m$[0m[35m0x34[0m
    3379:	e9 a2 fc ff ff       	[33mjmp    [0m[35m3020[0m <[32m_init[0m[35m+0x[0m[35m20[0m>
    337e:	66 90                	[33mxchg   [0m[34m%ax[0m,[34m%ax[0m
    3380:	f3 0f 1e fa          	[33mendbr64[0m
    3384:	68 35 00 00 00       	[33mpush   [0m[35m$[0m[35m0x35[0m
    3389:	e9 92 fc ff ff       	[33mjmp    [0m[35m3020[0m <[32m_init[0m[35m+0x[0m[35m20[0m>
    338e:	66 90                	[33mxchg   [0m[34m%ax[0m,[34m%ax[0m
    3390:	f3 0f 1e fa          	[33mendbr64[0m
    3394:	68 36 00 00 00       	[33mpush   [0m[35m$[0m[35m0x36[0m
    3399:	e9 82 fc ff ff       	[33mjmp    [0m[35m3020[0m <[32m_init[0m[35m+0x[0m[35m20[0m>
    339e:	66 90                	[33mxchg   [0m[34m%ax[0m,[34m%ax[0m
    33a0:	f3 0f 1e fa          	[33mendbr64[0m
    33a4:	68 37 00 00 00       	[33mpush   [0m[35m$[0m[35m0x37[0m
    33a9:	e9 72 fc ff ff       	[33mjmp    [0m[35m3020[0m <[32m_init[0m[35m+0x[0m[35m20[0m>
    33ae:	66 90                	[33mxchg   [0m[34m%ax[0m,[34m%ax[0m
    33b0:	f3 0f 1e fa          	[33mendbr64[0m
    33b4:	68 38 00 00 00       	[33mpush   [0m[35m$[0m[35m0x38[0m
    33b9:	e9 62 fc ff ff       	[33mjmp    [0m[35m3020[0m <[32m_init[0m[35m+0x[0m[35m20[0m>
    33be:	66 90                	[33mxchg   [0m[34m%ax[0m,[34m%ax[0m
    33c0:	f3 0f 1e fa          	[33mendbr64[0m
    33c4:	68 39 00 00 00       	[33mpush   [0m[35m$[0m[35m0x39[0m
    33c9:	e9 52 fc ff ff       	[33mjmp    [0m[35m3020[0m <[32m_init[0m[35m+0x[0m[35m20[0m>
    33ce:	66 90                	[33mxchg   [0m[34m%ax[0m,[34m%ax[0m
    33d0:	f3 0f 1e fa          	[33mendbr64[0m
    33d4:	68 3a 00 00 00       	[33mpush   [0m[35m$[0m[35m0x3a[0m
    33d9:	e9 42 fc ff ff       	[33mjmp    [0m[35m3020[0m <[32m_init[0m[35m+0x[0m[35m20[0m>
    33de:	66 90                	[33mxchg   [0m[34m%ax[0m,[34m%ax[0m
    33e0:	f3 0f 1e fa          	[33mendbr64[0m
    33e4:	68 3b 00 00 00       	[33mpush   [0m[35m$[0m[35m0x3b[0m
    33e9:	e9 32 fc ff ff       	[33mjmp    [0m[35m3020[0m <[32m_init[0m[35m+0x[0m[35m20[0m>
    33ee:	66 90                	[33mxchg   [0m[34m%ax[0m,[34m%ax[0m
    33f0:	f3 0f 1e fa          	[33mendbr64[0m
    33f4:	68 3c 00 00 00       	[33mpush   [0m[35m$[0m[35m0x3c[0m
    33f9:	e9 22 fc ff ff       	[33mjmp    [0m[35m3020[0m <[32m_init[0m[35m+0x[0m[35m20[0m>
    33fe:	66 90                	[33mxchg   [0m[34m%ax[0m,[34m%ax[0m
    3400:	f3 0f 1e fa          	[33mendbr64[0m
    3404:	68 3d 00 00 00       	[33mpush   [0m[35m$[0m[35m0x3d[0m
    3409:	e9 12 fc ff ff       	[33mjmp    [0m[35m3020[0m <[32m_init[0m[35m+0x[0m[35m20[0m>
    340e:	66 90                	[33mxchg   [0m[34m%ax[0m,[34m%ax[0m
    3410:	f3 0f 1e fa          	[33mendbr64[0m
    3414:	68 3e 00 00 00       	[33mpush   [0m[35m$[0m[35m0x3e[0m
    3419:	e9 02 fc ff ff       	[33mjmp    [0m[35m3020[0m <[32m_init[0m[35m+0x[0m[35m20[0m>
    341e:	66 90                	[33mxchg   [0m[34m%ax[0m,[34m%ax[0m

Disassembly of section .plt.got:

0000000000003420 <__cxa_finalize@plt>:
    3420:	f3 0f 1e fa          	[33mendbr64[0m
    3424:	ff 25 be eb 00 00    	[33mjmp    [0m*[35m0xebbe[0m([34m%rip[0m)        # 11fe8 <__cxa_finalize@GLIBC_2.2.5>
    342a:	66 0f 1f 44 00 00    	[33mnopw   [0m[35m0x0[0m([34m%rax[0m,[34m%rax[0m,[35m1[0m)

Disassembly of section .plt.sec:

0000000000003430 <glEnable@plt>:
    3430:	f3 0f 1e fa          	[33mendbr64[0m
    3434:	ff 25 9e e9 00 00    	[33mjmp    [0m*[35m0xe99e[0m([34m%rip[0m)        # 11dd8 <glEnable@Base>
    343a:	66 0f 1f 44 00 00    	[33mnopw   [0m[35m0x0[0m([34m%rax[0m,[34m%rax[0m,[35m1[0m)

0000000000003440 <printf@plt>:
    3440:	f3 0f 1e fa          	[33mendbr64[0m
    3444:	ff 25 96 e9 00 00    	[33mjmp    [0m*[35m0xe996[0m([34m%rip[0m)        # 11de0 <printf@GLIBC_2.2.5>
    344a:	66 0f 1f 44 00 00    	[33mnopw   [0m[35m0x0[0m([34m%rax[0m,[34m%rax[0m,[35m1[0m)

0000000000003450 <ftell@plt>:
    3450:	f3 0f 1e fa          	[33mendbr64[0m
    3454:	ff 25 8e e9 00 00    	[33mjmp    [0m*[35m0xe98e[0m([34m%rip[0m)        # 11de8 <ftell@GLIBC_2.2.5>
    345a:	66 0f 1f 44 00 00    	[33mnopw   [0m[35m0x0[0m([34m%rax[0m,[34m%rax[0m,[35m1[0m)

0000000000003460 <FT_Set_Pixel_Sizes@plt>:
    3460:	f3 0f 1e fa          	[33mendbr64[0m
    3464:	ff 25 86 e9 00 00    	[33mjmp    [0m*[35m0xe986[0m([34m%rip[0m)        # 11df0 <FT_Set_Pixel_Sizes@Base>
    346a:	66 0f 1f 44 00 00    	[33mnopw   [0m[35m0x0[0m([34m%rax[0m,[34m%rax[0m,[35m1[0m)

0000000000003470 <puts@plt>:
    3470:	f3 0f 1e fa          	[33mendbr64[0m
    3474:	ff 25 7e e9 00 00    	[33mjmp    [0m*[35m0xe97e[0m([34m%rip[0m)        # 11df8 <puts@GLIBC_2.2.5>
    347a:	66 0f 1f 44 00 00    	[33mnopw   [0m[35m0x0[0m([34m%rax[0m,[34m%rax[0m,[35m1[0m)

0000000000003480 <fseek@plt>:
    3480:	f3 0f 1e fa          	[33mendbr64[0m
    3484:	ff 25 76 e9 00 00    	[33mjmp    [0m*[35m0xe976[0m([34m%rip[0m)        # 11e00 <fseek@GLIBC_2.2.5>
    348a:	66 0f 1f 44 00 00    	[33mnopw   [0m[35m0x0[0m([34m%rax[0m,[34m%rax[0m,[35m1[0m)

0000000000003490 <glClear@plt>:
    3490:	f3 0f 1e fa          	[33mendbr64[0m
    3494:	ff 25 6e e9 00 00    	[33mjmp    [0m*[35m0xe96e[0m([34m%rip[0m)        # 11e08 <glClear@Base>
    349a:	66 0f 1f 44 00 00    	[33mnopw   [0m[35m0x0[0m([34m%rax[0m,[34m%rax[0m,[35m1[0m)

00000000000034a0 <exit@plt>:
    34a0:	f3 0f 1e fa          	[33mendbr64[0m
    34a4:	ff 25 66 e9 00 00    	[33mjmp    [0m*[35m0xe966[0m([34m%rip[0m)        # 11e10 <exit@GLIBC_2.2.5>
    34aa:	66 0f 1f 44 00 00    	[33mnopw   [0m[35m0x0[0m([34m%rax[0m,[34m%rax[0m,[35m1[0m)

00000000000034b0 <__assert_fail@plt>:
    34b0:	f3 0f 1e fa          	[33mendbr64[0m
    34b4:	ff 25 5e e9 00 00    	[33mjmp    [0m*[35m0xe95e[0m([34m%rip[0m)        # 11e18 <__assert_fail@GLIBC_2.2.5>
    34ba:	66 0f 1f 44 00 00    	[33mnopw   [0m[35m0x0[0m([34m%rax[0m,[34m%rax[0m,[35m1[0m)

00000000000034c0 <malloc@plt>:
    34c0:	f3 0f 1e fa          	[33mendbr64[0m
    34c4:	ff 25 56 e9 00 00    	[33mjmp    [0m*[35m0xe956[0m([34m%rip[0m)        # 11e20 <malloc@GLIBC_2.2.5>
    34ca:	66 0f 1f 44 00 00    	[33mnopw   [0m[35m0x0[0m([34m%rax[0m,[34m%rax[0m,[35m1[0m)

00000000000034d0 <fopen@plt>:
    34d0:	f3 0f 1e fa          	[33mendbr64[0m
    34d4:	ff 25 4e e9 00 00    	[33mjmp    [0m*[35m0xe94e[0m([34m%rip[0m)        # 11e28 <fopen@GLIBC_2.2.5>
    34da:	66 0f 1f 44 00 00    	[33mnopw   [0m[35m0x0[0m([34m%rax[0m,[34m%rax[0m,[35m1[0m)

00000000000034e0 <SDL_GetTicks@plt>:
    34e0:	f3 0f 1e fa          	[33mendbr64[0m
    34e4:	ff 25 46 e9 00 00    	[33mjmp    [0m*[35m0xe946[0m([34m%rip[0m)        # 11e30 <SDL_GetTicks@Base>
    34ea:	66 0f 1f 44 00 00    	[33mnopw   [0m[35m0x0[0m([34m%rax[0m,[34m%rax[0m,[35m1[0m)

00000000000034f0 <SDL_PollEvent@plt>:
    34f0:	f3 0f 1e fa          	[33mendbr64[0m
    34f4:	ff 25 3e e9 00 00    	[33mjmp    [0m*[35m0xe93e[0m([34m%rip[0m)        # 11e38 <SDL_PollEvent@Base>
    34fa:	66 0f 1f 44 00 00    	[33mnopw   [0m[35m0x0[0m([34m%rax[0m,[34m%rax[0m,[35m1[0m)

0000000000003500 <SDL_GetWindowSize@plt>:
    3500:	f3 0f 1e fa          	[33mendbr64[0m
    3504:	ff 25 36 e9 00 00    	[33mjmp    [0m*[35m0xe936[0m([34m%rip[0m)        # 11e40 <SDL_GetWindowSize@Base>
    350a:	66 0f 1f 44 00 00    	[33mnopw   [0m[35m0x0[0m([34m%rax[0m,[34m%rax[0m,[35m1[0m)

0000000000003510 <glClearColor@plt>:
    3510:	f3 0f 1e fa          	[33mendbr64[0m
    3514:	ff 25 2e e9 00 00    	[33mjmp    [0m*[35m0xe92e[0m([34m%rip[0m)        # 11e48 <glClearColor@Base>
    351a:	66 0f 1f 44 00 00    	[33mnopw   [0m[35m0x0[0m([34m%rax[0m,[34m%rax[0m,[35m1[0m)

0000000000003520 <SDL_GL_SwapWindow@plt>:
    3520:	f3 0f 1e fa          	[33mendbr64[0m
    3524:	ff 25 26 e9 00 00    	[33mjmp    [0m*[35m0xe926[0m([34m%rip[0m)        # 11e50 <SDL_GL_SwapWindow@Base>
    352a:	66 0f 1f 44 00 00    	[33mnopw   [0m[35m0x0[0m([34m%rax[0m,[34m%rax[0m,[35m1[0m)

0000000000003530 <SDL_free@plt>:
    3530:	f3 0f 1e fa          	[33mendbr64[0m
    3534:	ff 25 1e e9 00 00    	[33mjmp    [0m*[35m0xe91e[0m([34m%rip[0m)        # 11e58 <SDL_free@Base>
    353a:	66 0f 1f 44 00 00    	[33mnopw   [0m[35m0x0[0m([34m%rax[0m,[34m%rax[0m,[35m1[0m)

0000000000003540 <fputc@plt>:
    3540:	f3 0f 1e fa          	[33mendbr64[0m
    3544:	ff 25 16 e9 00 00    	[33mjmp    [0m*[35m0xe916[0m([34m%rip[0m)        # 11e60 <fputc@GLIBC_2.2.5>
    354a:	66 0f 1f 44 00 00    	[33mnopw   [0m[35m0x0[0m([34m%rax[0m,[34m%rax[0m,[35m1[0m)

0000000000003550 <SDL_GL_GetAttribute@plt>:
    3550:	f3 0f 1e fa          	[33mendbr64[0m
    3554:	ff 25 0e e9 00 00    	[33mjmp    [0m*[35m0xe90e[0m([34m%rip[0m)        # 11e68 <SDL_GL_GetAttribute@Base>
    355a:	66 0f 1f 44 00 00    	[33mnopw   [0m[35m0x0[0m([34m%rax[0m,[34m%rax[0m,[35m1[0m)

0000000000003560 <free@plt>:
    3560:	f3 0f 1e fa          	[33mendbr64[0m
    3564:	ff 25 06 e9 00 00    	[33mjmp    [0m*[35m0xe906[0m([34m%rip[0m)        # 11e70 <free@GLIBC_2.2.5>
    356a:	66 0f 1f 44 00 00    	[33mnopw   [0m[35m0x0[0m([34m%rax[0m,[34m%rax[0m,[35m1[0m)

0000000000003570 <strlen@plt>:
    3570:	f3 0f 1e fa          	[33mendbr64[0m
    3574:	ff 25 fe e8 00 00    	[33mjmp    [0m*[35m0xe8fe[0m([34m%rip[0m)        # 11e78 <strlen@GLIBC_2.2.5>
    357a:	66 0f 1f 44 00 00    	[33mnopw   [0m[35m0x0[0m([34m%rax[0m,[34m%rax[0m,[35m1[0m)

0000000000003580 <ferror@plt>:
    3580:	f3 0f 1e fa          	[33mendbr64[0m
    3584:	ff 25 f6 e8 00 00    	[33mjmp    [0m*[35m0xe8f6[0m([34m%rip[0m)        # 11e80 <ferror@GLIBC_2.2.5>
    358a:	66 0f 1f 44 00 00    	[33mnopw   [0m[35m0x0[0m([34m%rax[0m,[34m%rax[0m,[35m1[0m)

0000000000003590 <opendir@plt>:
    3590:	f3 0f 1e fa          	[33mendbr64[0m
    3594:	ff 25 ee e8 00 00    	[33mjmp    [0m*[35m0xe8ee[0m([34m%rip[0m)        # 11e88 <opendir@GLIBC_2.2.5>
    359a:	66 0f 1f 44 00 00    	[33mnopw   [0m[35m0x0[0m([34m%rax[0m,[34m%rax[0m,[35m1[0m)

00000000000035a0 <__ctype_b_loc@plt>:
    35a0:	f3 0f 1e fa          	[33mendbr64[0m
    35a4:	ff 25 e6 e8 00 00    	[33mjmp    [0m*[35m0xe8e6[0m([34m%rip[0m)        # 11e90 <__ctype_b_loc@GLIBC_2.3>
    35aa:	66 0f 1f 44 00 00    	[33mnopw   [0m[35m0x0[0m([34m%rax[0m,[34m%rax[0m,[35m1[0m)

00000000000035b0 <SDL_CreateWindow@plt>:
    35b0:	f3 0f 1e fa          	[33mendbr64[0m
    35b4:	ff 25 de e8 00 00    	[33mjmp    [0m*[35m0xe8de[0m([34m%rip[0m)        # 11e98 <SDL_CreateWindow@Base>
    35ba:	66 0f 1f 44 00 00    	[33mnopw   [0m[35m0x0[0m([34m%rax[0m,[34m%rax[0m,[35m1[0m)

00000000000035c0 <SDL_Init@plt>:
    35c0:	f3 0f 1e fa          	[33mendbr64[0m
    35c4:	ff 25 d6 e8 00 00    	[33mjmp    [0m*[35m0xe8d6[0m([34m%rip[0m)        # 11ea0 <SDL_Init@Base>
    35ca:	66 0f 1f 44 00 00    	[33mnopw   [0m[35m0x0[0m([34m%rax[0m,[34m%rax[0m,[35m1[0m)

00000000000035d0 <glewInit@plt>:
    35d0:	f3 0f 1e fa          	[33mendbr64[0m
    35d4:	ff 25 ce e8 00 00    	[33mjmp    [0m*[35m0xe8ce[0m([34m%rip[0m)        # 11ea8 <glewInit@Base>
    35da:	66 0f 1f 44 00 00    	[33mnopw   [0m[35m0x0[0m([34m%rax[0m,[34m%rax[0m,[35m1[0m)

00000000000035e0 <glBlendFunc@plt>:
    35e0:	f3 0f 1e fa          	[33mendbr64[0m
    35e4:	ff 25 c6 e8 00 00    	[33mjmp    [0m*[35m0xe8c6[0m([34m%rip[0m)        # 11eb0 <glBlendFunc@Base>
    35ea:	66 0f 1f 44 00 00    	[33mnopw   [0m[35m0x0[0m([34m%rax[0m,[34m%rax[0m,[35m1[0m)

00000000000035f0 <readdir@plt>:
    35f0:	f3 0f 1e fa          	[33mendbr64[0m
    35f4:	ff 25 be e8 00 00    	[33mjmp    [0m*[35m0xe8be[0m([34m%rip[0m)        # 11eb8 <readdir@GLIBC_2.2.5>
    35fa:	66 0f 1f 44 00 00    	[33mnopw   [0m[35m0x0[0m([34m%rax[0m,[34m%rax[0m,[35m1[0m)

0000000000003600 <SDL_SetClipboardText@plt>:
    3600:	f3 0f 1e fa          	[33mendbr64[0m
    3604:	ff 25 b6 e8 00 00    	[33mjmp    [0m*[35m0xe8b6[0m([34m%rip[0m)        # 11ec0 <SDL_SetClipboardText@Base>
    360a:	66 0f 1f 44 00 00    	[33mnopw   [0m[35m0x0[0m([34m%rax[0m,[34m%rax[0m,[35m1[0m)

0000000000003610 <glBindTexture@plt>:
    3610:	f3 0f 1e fa          	[33mendbr64[0m
    3614:	ff 25 ae e8 00 00    	[33mjmp    [0m*[35m0xe8ae[0m([34m%rip[0m)        # 11ec8 <glBindTexture@Base>
    361a:	66 0f 1f 44 00 00    	[33mnopw   [0m[35m0x0[0m([34m%rax[0m,[34m%rax[0m,[35m1[0m)

0000000000003620 <strerror@plt>:
    3620:	f3 0f 1e fa          	[33mendbr64[0m
    3624:	ff 25 a6 e8 00 00    	[33mjmp    [0m*[35m0xe8a6[0m([34m%rip[0m)        # 11ed0 <strerror@GLIBC_2.2.5>
    362a:	66 0f 1f 44 00 00    	[33mnopw   [0m[35m0x0[0m([34m%rax[0m,[34m%rax[0m,[35m1[0m)

0000000000003630 <glewGetErrorString@plt>:
    3630:	f3 0f 1e fa          	[33mendbr64[0m
    3634:	ff 25 9e e8 00 00    	[33mjmp    [0m*[35m0xe89e[0m([34m%rip[0m)        # 11ed8 <glewGetErrorString@Base>
    363a:	66 0f 1f 44 00 00    	[33mnopw   [0m[35m0x0[0m([34m%rax[0m,[34m%rax[0m,[35m1[0m)

0000000000003640 <FT_Init_FreeType@plt>:
    3640:	f3 0f 1e fa          	[33mendbr64[0m
    3644:	ff 25 96 e8 00 00    	[33mjmp    [0m*[35m0xe896[0m([34m%rip[0m)        # 11ee0 <FT_Init_FreeType@Base>
    364a:	66 0f 1f 44 00 00    	[33mnopw   [0m[35m0x0[0m([34m%rax[0m,[34m%rax[0m,[35m1[0m)

0000000000003650 <glPixelStorei@plt>:
    3650:	f3 0f 1e fa          	[33mendbr64[0m
    3654:	ff 25 8e e8 00 00    	[33mjmp    [0m*[35m0xe88e[0m([34m%rip[0m)        # 11ee8 <glPixelStorei@Base>
    365a:	66 0f 1f 44 00 00    	[33mnopw   [0m[35m0x0[0m([34m%rax[0m,[34m%rax[0m,[35m1[0m)

0000000000003660 <SDL_GL_SetAttribute@plt>:
    3660:	f3 0f 1e fa          	[33mendbr64[0m
    3664:	ff 25 86 e8 00 00    	[33mjmp    [0m*[35m0xe886[0m([34m%rip[0m)        # 11ef0 <SDL_GL_SetAttribute@Base>
    366a:	66 0f 1f 44 00 00    	[33mnopw   [0m[35m0x0[0m([34m%rax[0m,[34m%rax[0m,[35m1[0m)

0000000000003670 <SDL_GetClipboardText@plt>:
    3670:	f3 0f 1e fa          	[33mendbr64[0m
    3674:	ff 25 7e e8 00 00    	[33mjmp    [0m*[35m0xe87e[0m([34m%rip[0m)        # 11ef8 <SDL_GetClipboardText@Base>
    367a:	66 0f 1f 44 00 00    	[33mnopw   [0m[35m0x0[0m([34m%rax[0m,[34m%rax[0m,[35m1[0m)

0000000000003680 <memmove@plt>:
    3680:	f3 0f 1e fa          	[33mendbr64[0m
    3684:	ff 25 76 e8 00 00    	[33mjmp    [0m*[35m0xe876[0m([34m%rip[0m)        # 11f00 <memmove@GLIBC_2.2.5>
    368a:	66 0f 1f 44 00 00    	[33mnopw   [0m[35m0x0[0m([34m%rax[0m,[34m%rax[0m,[35m1[0m)

0000000000003690 <fread@plt>:
    3690:	f3 0f 1e fa          	[33mendbr64[0m
    3694:	ff 25 6e e8 00 00    	[33mjmp    [0m*[35m0xe86e[0m([34m%rip[0m)        # 11f08 <fread@GLIBC_2.2.5>
    369a:	66 0f 1f 44 00 00    	[33mnopw   [0m[35m0x0[0m([34m%rax[0m,[34m%rax[0m,[35m1[0m)

00000000000036a0 <SDL_GL_CreateContext@plt>:
    36a0:	f3 0f 1e fa          	[33mendbr64[0m
    36a4:	ff 25 66 e8 00 00    	[33mjmp    [0m*[35m0xe866[0m([34m%rip[0m)        # 11f10 <SDL_GL_CreateContext@Base>
    36aa:	66 0f 1f 44 00 00    	[33mnopw   [0m[35m0x0[0m([34m%rax[0m,[34m%rax[0m,[35m1[0m)

00000000000036b0 <__errno_location@plt>:
    36b0:	f3 0f 1e fa          	[33mendbr64[0m
    36b4:	ff 25 5e e8 00 00    	[33mjmp    [0m*[35m0xe85e[0m([34m%rip[0m)        # 11f18 <__errno_location@GLIBC_2.2.5>
    36ba:	66 0f 1f 44 00 00    	[33mnopw   [0m[35m0x0[0m([34m%rax[0m,[34m%rax[0m,[35m1[0m)

00000000000036c0 <qsort@plt>:
    36c0:	f3 0f 1e fa          	[33mendbr64[0m
    36c4:	ff 25 56 e8 00 00    	[33mjmp    [0m*[35m0xe856[0m([34m%rip[0m)        # 11f20 <qsort@GLIBC_2.2.5>
    36ca:	66 0f 1f 44 00 00    	[33mnopw   [0m[35m0x0[0m([34m%rax[0m,[34m%rax[0m,[35m1[0m)

00000000000036d0 <glTexImage2D@plt>:
    36d0:	f3 0f 1e fa          	[33mendbr64[0m
    36d4:	ff 25 4e e8 00 00    	[33mjmp    [0m*[35m0xe84e[0m([34m%rip[0m)        # 11f28 <glTexImage2D@Base>
    36da:	66 0f 1f 44 00 00    	[33mnopw   [0m[35m0x0[0m([34m%rax[0m,[34m%rax[0m,[35m1[0m)

00000000000036e0 <__stack_chk_fail@plt>:
    36e0:	f3 0f 1e fa          	[33mendbr64[0m
    36e4:	ff 25 46 e8 00 00    	[33mjmp    [0m*[35m0xe846[0m([34m%rip[0m)        # 11f30 <__stack_chk_fail@GLIBC_2.4>
    36ea:	66 0f 1f 44 00 00    	[33mnopw   [0m[35m0x0[0m([34m%rax[0m,[34m%rax[0m,[35m1[0m)

00000000000036f0 <strcmp@plt>:
    36f0:	f3 0f 1e fa          	[33mendbr64[0m
    36f4:	ff 25 3e e8 00 00    	[33mjmp    [0m*[35m0xe83e[0m([34m%rip[0m)        # 11f38 <strcmp@GLIBC_2.2.5>
    36fa:	66 0f 1f 44 00 00    	[33mnopw   [0m[35m0x0[0m([34m%rax[0m,[34m%rax[0m,[35m1[0m)

0000000000003700 <glDrawArrays@plt>:
    3700:	f3 0f 1e fa          	[33mendbr64[0m
    3704:	ff 25 36 e8 00 00    	[33mjmp    [0m*[35m0xe836[0m([34m%rip[0m)        # 11f40 <glDrawArrays@Base>
    370a:	66 0f 1f 44 00 00    	[33mnopw   [0m[35m0x0[0m([34m%rax[0m,[34m%rax[0m,[35m1[0m)

0000000000003710 <FT_New_Face@plt>:
    3710:	f3 0f 1e fa          	[33mendbr64[0m
    3714:	ff 25 2e e8 00 00    	[33mjmp    [0m*[35m0xe82e[0m([34m%rip[0m)        # 11f48 <FT_New_Face@Base>
    371a:	66 0f 1f 44 00 00    	[33mnopw   [0m[35m0x0[0m([34m%rax[0m,[34m%rax[0m,[35m1[0m)

0000000000003720 <glTexSubImage2D@plt>:
    3720:	f3 0f 1e fa          	[33mendbr64[0m
    3724:	ff 25 26 e8 00 00    	[33mjmp    [0m*[35m0xe826[0m([34m%rip[0m)        # 11f50 <glTexSubImage2D@Base>
    372a:	66 0f 1f 44 00 00    	[33mnopw   [0m[35m0x0[0m([34m%rax[0m,[34m%rax[0m,[35m1[0m)

0000000000003730 <memcmp@plt>:
    3730:	f3 0f 1e fa          	[33mendbr64[0m
    3734:	ff 25 1e e8 00 00    	[33mjmp    [0m*[35m0xe81e[0m([34m%rip[0m)        # 11f58 <memcmp@GLIBC_2.2.5>
    373a:	66 0f 1f 44 00 00    	[33mnopw   [0m[35m0x0[0m([34m%rax[0m,[34m%rax[0m,[35m1[0m)

0000000000003740 <FT_Load_Char@plt>:
    3740:	f3 0f 1e fa          	[33mendbr64[0m
    3744:	ff 25 16 e8 00 00    	[33mjmp    [0m*[35m0xe816[0m([34m%rip[0m)        # 11f60 <FT_Load_Char@Base>
    374a:	66 0f 1f 44 00 00    	[33mnopw   [0m[35m0x0[0m([34m%rax[0m,[34m%rax[0m,[35m1[0m)

0000000000003750 <fclose@plt>:
    3750:	f3 0f 1e fa          	[33mendbr64[0m
    3754:	ff 25 0e e8 00 00    	[33mjmp    [0m*[35m0xe80e[0m([34m%rip[0m)        # 11f68 <fclose@GLIBC_2.2.5>
    375a:	66 0f 1f 44 00 00    	[33mnopw   [0m[35m0x0[0m([34m%rax[0m,[34m%rax[0m,[35m1[0m)

0000000000003760 <SDL_Delay@plt>:
    3760:	f3 0f 1e fa          	[33mendbr64[0m
    3764:	ff 25 06 e8 00 00    	[33mjmp    [0m*[35m0xe806[0m([34m%rip[0m)        # 11f70 <SDL_Delay@Base>
    376a:	66 0f 1f 44 00 00    	[33mnopw   [0m[35m0x0[0m([34m%rax[0m,[34m%rax[0m,[35m1[0m)

0000000000003770 <closedir@plt>:
    3770:	f3 0f 1e fa          	[33mendbr64[0m
    3774:	ff 25 fe e7 00 00    	[33mjmp    [0m*[35m0xe7fe[0m([34m%rip[0m)        # 11f78 <closedir@GLIBC_2.2.5>
    377a:	66 0f 1f 44 00 00    	[33mnopw   [0m[35m0x0[0m([34m%rax[0m,[34m%rax[0m,[35m1[0m)

0000000000003780 <glViewport@plt>:
    3780:	f3 0f 1e fa          	[33mendbr64[0m
    3784:	ff 25 f6 e7 00 00    	[33mjmp    [0m*[35m0xe7f6[0m([34m%rip[0m)        # 11f80 <glViewport@Base>
    378a:	66 0f 1f 44 00 00    	[33mnopw   [0m[35m0x0[0m([34m%rax[0m,[34m%rax[0m,[35m1[0m)

0000000000003790 <fwrite@plt>:
    3790:	f3 0f 1e fa          	[33mendbr64[0m
    3794:	ff 25 ee e7 00 00    	[33mjmp    [0m*[35m0xe7ee[0m([34m%rip[0m)        # 11f88 <fwrite@GLIBC_2.2.5>
    379a:	66 0f 1f 44 00 00    	[33mnopw   [0m[35m0x0[0m([34m%rax[0m,[34m%rax[0m,[35m1[0m)

00000000000037a0 <realloc@plt>:
    37a0:	f3 0f 1e fa          	[33mendbr64[0m
    37a4:	ff 25 e6 e7 00 00    	[33mjmp    [0m*[35m0xe7e6[0m([34m%rip[0m)        # 11f90 <realloc@GLIBC_2.2.5>
    37aa:	66 0f 1f 44 00 00    	[33mnopw   [0m[35m0x0[0m([34m%rax[0m,[34m%rax[0m,[35m1[0m)

00000000000037b0 <SDL_GetError@plt>:
    37b0:	f3 0f 1e fa          	[33mendbr64[0m
    37b4:	ff 25 de e7 00 00    	[33mjmp    [0m*[35m0xe7de[0m([34m%rip[0m)        # 11f98 <SDL_GetError@Base>
    37ba:	66 0f 1f 44 00 00    	[33mnopw   [0m[35m0x0[0m([34m%rax[0m,[34m%rax[0m,[35m1[0m)

00000000000037c0 <fprintf@plt>:
    37c0:	f3 0f 1e fa          	[33mendbr64[0m
    37c4:	ff 25 d6 e7 00 00    	[33mjmp    [0m*[35m0xe7d6[0m([34m%rip[0m)        # 11fa0 <fprintf@GLIBC_2.2.5>
    37ca:	66 0f 1f 44 00 00    	[33mnopw   [0m[35m0x0[0m([34m%rax[0m,[34m%rax[0m,[35m1[0m)

00000000000037d0 <FT_Render_Glyph@plt>:
    37d0:	f3 0f 1e fa          	[33mendbr64[0m
    37d4:	ff 25 ce e7 00 00    	[33mjmp    [0m*[35m0xe7ce[0m([34m%rip[0m)        # 11fa8 <FT_Render_Glyph@Base>
    37da:	66 0f 1f 44 00 00    	[33mnopw   [0m[35m0x0[0m([34m%rax[0m,[34m%rax[0m,[35m1[0m)

00000000000037e0 <stat@plt>:
    37e0:	f3 0f 1e fa          	[33mendbr64[0m
    37e4:	ff 25 c6 e7 00 00    	[33mjmp    [0m*[35m0xe7c6[0m([34m%rip[0m)        # 11fb0 <stat@GLIBC_2.33>
    37ea:	66 0f 1f 44 00 00    	[33mnopw   [0m[35m0x0[0m([34m%rax[0m,[34m%rax[0m,[35m1[0m)

00000000000037f0 <glTexParameteri@plt>:
    37f0:	f3 0f 1e fa          	[33mendbr64[0m
    37f4:	ff 25 be e7 00 00    	[33mjmp    [0m*[35m0xe7be[0m([34m%rip[0m)        # 11fb8 <glTexParameteri@Base>
    37fa:	66 0f 1f 44 00 00    	[33mnopw   [0m[35m0x0[0m([34m%rax[0m,[34m%rax[0m,[35m1[0m)

0000000000003800 <memcpy@plt>:
    3800:	f3 0f 1e fa          	[33mendbr64[0m
    3804:	ff 25 b6 e7 00 00    	[33mjmp    [0m*[35m0xe7b6[0m([34m%rip[0m)        # 11fc0 <memcpy@GLIBC_2.14>
    380a:	66 0f 1f 44 00 00    	[33mnopw   [0m[35m0x0[0m([34m%rax[0m,[34m%rax[0m,[35m1[0m)

0000000000003810 <glGenTextures@plt>:
    3810:	f3 0f 1e fa          	[33mendbr64[0m
    3814:	ff 25 ae e7 00 00    	[33mjmp    [0m*[35m0xe7ae[0m([34m%rip[0m)        # 11fc8 <glGenTextures@Base>
    381a:	66 0f 1f 44 00 00    	[33mnopw   [0m[35m0x0[0m([34m%rax[0m,[34m%rax[0m,[35m1[0m)

Disassembly of section .text:

0000000000003820 <_start>:
    3820:	f3 0f 1e fa          	[33mendbr64[0m
    3824:	31 ed                	[33mxor    [0m[34m%ebp[0m,[34m%ebp[0m
    3826:	49 89 d1             	[33mmov    [0m[34m%rdx[0m,[34m%r9[0m
    3829:	5e                   	[33mpop    [0m[34m%rsi[0m
    382a:	48 89 e2             	[33mmov    [0m[34m%rsp[0m,[34m%rdx[0m
    382d:	48 83 e4 f0          	[33mand    [0m[35m$[0m[35m0xfffffffffffffff0[0m,[34m%rsp[0m
    3831:	50                   	[33mpush   [0m[34m%rax[0m
    3832:	54                   	[33mpush   [0m[34m%rsp[0m
    3833:	45 31 c0             	[33mxor    [0m[34m%r8d[0m,[34m%r8d[0m
    3836:	31 c9                	[33mxor    [0m[34m%ecx[0m,[34m%ecx[0m
    3838:	48 8d 3d 36 01 00 00 	[33mlea    [0m[35m0x136[0m([34m%rip[0m),[34m%rdi[0m        # 3975 <main>
    383f:	ff 15 ab e7 00 00    	[33mcall   [0m*[35m0xe7ab[0m([34m%rip[0m)        # 11ff0 <__libc_start_main@GLIBC_2.34>
    3845:	f4                   	[33mhlt[0m
    3846:	66 2e 0f 1f 84 00 00 	[33mcs [0m[33mnopw [0m[35m0x0[0m([34m%rax[0m,[34m%rax[0m,[35m1[0m)
    384d:	00 00 00 

0000000000003850 <deregister_tm_clones>:
    3850:	48 8d 3d 51 eb 00 00 	[33mlea    [0m[35m0xeb51[0m([34m%rip[0m),[34m%rdi[0m        # 123a8 <__TMC_END__>
    3857:	48 8d 05 4a eb 00 00 	[33mlea    [0m[35m0xeb4a[0m([34m%rip[0m),[34m%rax[0m        # 123a8 <__TMC_END__>
    385e:	48 39 f8             	[33mcmp    [0m[34m%rdi[0m,[34m%rax[0m
    3861:	74 15                	[33mje     [0m[35m3878[0m <[32mderegister_tm_clones[0m[35m+0x[0m[35m28[0m>
    3863:	48 8b 05 6e e7 00 00 	[33mmov    [0m[35m0xe76e[0m([34m%rip[0m),[34m%rax[0m        # 11fd8 <_ITM_deregisterTMCloneTable@Base>
    386a:	48 85 c0             	[33mtest   [0m[34m%rax[0m,[34m%rax[0m
    386d:	74 09                	[33mje     [0m[35m3878[0m <[32mderegister_tm_clones[0m[35m+0x[0m[35m28[0m>
    386f:	ff e0                	[33mjmp    [0m*[34m%rax[0m
    3871:	0f 1f 80 00 00 00 00 	[33mnopl   [0m[35m0x0[0m([34m%rax[0m)
    3878:	c3                   	[33mret[0m
    3879:	0f 1f 80 00 00 00 00 	[33mnopl   [0m[35m0x0[0m([34m%rax[0m)

0000000000003880 <register_tm_clones>:
    3880:	48 8d 3d 21 eb 00 00 	[33mlea    [0m[35m0xeb21[0m([34m%rip[0m),[34m%rdi[0m        # 123a8 <__TMC_END__>
    3887:	48 8d 35 1a eb 00 00 	[33mlea    [0m[35m0xeb1a[0m([34m%rip[0m),[34m%rsi[0m        # 123a8 <__TMC_END__>
    388e:	48 29 fe             	[33msub    [0m[34m%rdi[0m,[34m%rsi[0m
    3891:	48 89 f0             	[33mmov    [0m[34m%rsi[0m,[34m%rax[0m
    3894:	48 c1 ee 3f          	[33mshr    [0m[35m$[0m[35m0x3f[0m,[34m%rsi[0m
    3898:	48 c1 f8 03          	[33msar    [0m[35m$[0m[35m0x3[0m,[34m%rax[0m
    389c:	48 01 c6             	[33madd    [0m[34m%rax[0m,[34m%rsi[0m
    389f:	48 d1 fe             	[33msar    [0m$1,[34m%rsi[0m
    38a2:	74 14                	[33mje     [0m[35m38b8[0m <[32mregister_tm_clones[0m[35m+0x[0m[35m38[0m>
    38a4:	48 8b 05 35 e7 00 00 	[33mmov    [0m[35m0xe735[0m([34m%rip[0m),[34m%rax[0m        # 11fe0 <_ITM_registerTMCloneTable@Base>
    38ab:	48 85 c0             	[33mtest   [0m[34m%rax[0m,[34m%rax[0m
    38ae:	74 08                	[33mje     [0m[35m38b8[0m <[32mregister_tm_clones[0m[35m+0x[0m[35m38[0m>
    38b0:	ff e0                	[33mjmp    [0m*[34m%rax[0m
    38b2:	66 0f 1f 44 00 00    	[33mnopw   [0m[35m0x0[0m([34m%rax[0m,[34m%rax[0m,[35m1[0m)
    38b8:	c3                   	[33mret[0m
    38b9:	0f 1f 80 00 00 00 00 	[33mnopl   [0m[35m0x0[0m([34m%rax[0m)

00000000000038c0 <__do_global_dtors_aux>:
    38c0:	f3 0f 1e fa          	[33mendbr64[0m
    38c4:	80 3d 7d ec 00 00 00 	[33mcmpb   [0m[35m$[0m[35m0x0[0m,[35m0xec7d[0m([34m%rip[0m)        # 12548 <completed.0>
    38cb:	75 2b                	[33mjne    [0m[35m38f8[0m <[32m__do_global_dtors_aux[0m[35m+0x[0m[35m38[0m>
    38cd:	55                   	[33mpush   [0m[34m%rbp[0m
    38ce:	48 83 3d 12 e7 00 00 	[33mcmpq   [0m[35m$[0m[35m0x0[0m,[35m0xe712[0m([34m%rip[0m)        # 11fe8 <__cxa_finalize@GLIBC_2.2.5>
    38d5:	00 
    38d6:	48 89 e5             	[33mmov    [0m[34m%rsp[0m,[34m%rbp[0m
    38d9:	74 0c                	[33mje     [0m[35m38e7[0m <[32m__do_global_dtors_aux[0m[35m+0x[0m[35m27[0m>
    38db:	48 8b 3d 26 e7 00 00 	[33mmov    [0m[35m0xe726[0m([34m%rip[0m),[34m%rdi[0m        # 12008 <__dso_handle>
    38e2:	e8 39 fb ff ff       	[33mcall   [0m[35m3420[0m <[32m__cxa_finalize@plt[0m>
    38e7:	e8 64 ff ff ff       	[33mcall   [0m[35m3850[0m <[32mderegister_tm_clones[0m>
    38ec:	c6 05 55 ec 00 00 01 	[33mmovb   [0m[35m$[0m[35m0x1[0m,[35m0xec55[0m([34m%rip[0m)        # 12548 <completed.0>
    38f3:	5d                   	[33mpop    [0m[34m%rbp[0m
    38f4:	c3                   	[33mret[0m
    38f5:	0f 1f 00             	[33mnopl   [0m([34m%rax[0m)
    38f8:	c3                   	[33mret[0m
    38f9:	0f 1f 80 00 00 00 00 	[33mnopl   [0m[35m0x0[0m([34m%rax[0m)

0000000000003900 <frame_dummy>:
    3900:	f3 0f 1e fa          	[33mendbr64[0m
    3904:	e9 77 ff ff ff       	[33mjmp    [0m[35m3880[0m <[32mregister_tm_clones[0m>

0000000000003909 <MessageCallback>:
    3909:	f3 0f 1e fa          	[33mendbr64[0m
    390d:	55                   	[33mpush   [0m[34m%rbp[0m
    390e:	48 89 e5             	[33mmov    [0m[34m%rsp[0m,[34m%rbp[0m
    3911:	48 83 ec 20          	[33msub    [0m[35m$[0m[35m0x20[0m,[34m%rsp[0m
    3915:	89 7d fc             	[33mmov    [0m[34m%edi[0m,[35m-[0m[35m0x4[0m([34m%rbp[0m)
    3918:	89 75 f8             	[33mmov    [0m[34m%esi[0m,[35m-[0m[35m0x8[0m([34m%rbp[0m)
    391b:	89 55 f4             	[33mmov    [0m[34m%edx[0m,[35m-[0m[35m0xc[0m([34m%rbp[0m)
    391e:	89 4d f0             	[33mmov    [0m[34m%ecx[0m,[35m-[0m[35m0x10[0m([34m%rbp[0m)
    3921:	44 89 45 ec          	[33mmov    [0m[34m%r8d[0m,[35m-[0m[35m0x14[0m([34m%rbp[0m)
    3925:	4c 89 4d e0          	[33mmov    [0m[34m%r9[0m,[35m-[0m[35m0x20[0m([34m%rbp[0m)
    3929:	81 7d f8 4c 82 00 00 	[33mcmpl   [0m[35m$[0m[35m0x824c[0m,[35m-[0m[35m0x8[0m([34m%rbp[0m)
    3930:	75 09                	[33mjne    [0m[35m393b[0m <[32mMessageCallback[0m[35m+0x[0m[35m32[0m>
    3932:	48 8d 05 cf a6 00 00 	[33mlea    [0m[35m0xa6cf[0m([34m%rip[0m),[34m%rax[0m        # e008 <_IO_stdin_used+0x8>
    3939:	eb 07                	[33mjmp    [0m[35m3942[0m <[32mMessageCallback[0m[35m+0x[0m[35m39[0m>
    393b:	48 8d 05 d5 a6 00 00 	[33mlea    [0m[35m0xa6d5[0m([34m%rip[0m),[34m%rax[0m        # e017 <_IO_stdin_used+0x17>
    3942:	48 8b 3d d7 eb 00 00 	[33mmov    [0m[35m0xebd7[0m([34m%rip[0m),[34m%rdi[0m        # 12520 <stderr@GLIBC_2.2.5>
    3949:	48 8b 75 e0          	[33mmov    [0m[35m-[0m[35m0x20[0m([34m%rbp[0m),[34m%rsi[0m
    394d:	8b 4d f0             	[33mmov    [0m[35m-[0m[35m0x10[0m([34m%rbp[0m),[34m%ecx[0m
    3950:	8b 55 f8             	[33mmov    [0m[35m-[0m[35m0x8[0m([34m%rbp[0m),[34m%edx[0m
    3953:	49 89 f1             	[33mmov    [0m[34m%rsi[0m,[34m%r9[0m
    3956:	41 89 c8             	[33mmov    [0m[34m%ecx[0m,[34m%r8d[0m
    3959:	89 d1                	[33mmov    [0m[34m%edx[0m,[34m%ecx[0m
    395b:	48 89 c2             	[33mmov    [0m[34m%rax[0m,[34m%rdx[0m
    395e:	48 8d 05 b3 a6 00 00 	[33mlea    [0m[35m0xa6b3[0m([34m%rip[0m),[34m%rax[0m        # e018 <_IO_stdin_used+0x18>
    3965:	48 89 c6             	[33mmov    [0m[34m%rax[0m,[34m%rsi[0m
    3968:	b8 00 00 00 00       	[33mmov    [0m[35m$[0m[35m0x0[0m,[34m%eax[0m
    396d:	e8 4e fe ff ff       	[33mcall   [0m[35m37c0[0m <[32mfprintf@plt[0m>
    3972:	90                   	[33mnop[0m
    3973:	c9                   	[33mleave[0m
    3974:	c3                   	[33mret[0m

0000000000003975 <main>:
    3975:	f3 0f 1e fa          	[33mendbr64[0m
    3979:	55                   	[33mpush   [0m[34m%rbp[0m
    397a:	48 89 e5             	[33mmov    [0m[34m%rsp[0m,[34m%rbp[0m
    397d:	48 81 ec e0 00 00 00 	[33msub    [0m[35m$[0m[35m0xe0[0m,[34m%rsp[0m
    3984:	89 bd 2c ff ff ff    	[33mmov    [0m[34m%edi[0m,[35m-[0m[35m0xd4[0m([34m%rbp[0m)
    398a:	48 89 b5 20 ff ff ff 	[33mmov    [0m[34m%rsi[0m,[35m-[0m[35m0xe0[0m([34m%rbp[0m)
    3991:	64 48 8b 04 25 28 00 	[33mmov    [0m[34m%fs[0m:[35m0x28[0m,[34m%rax[0m
    3998:	00 00 
    399a:	48 89 45 f8          	[33mmov    [0m[34m%rax[0m,[35m-[0m[35m0x8[0m([34m%rbp[0m)
    399e:	31 c0                	[33mxor    [0m[34m%eax[0m,[34m%eax[0m
    39a0:	48 c7 85 58 ff ff ff 	[33mmovq   [0m[35m$[0m[35m0x0[0m,[35m-[0m[35m0xa8[0m([34m%rbp[0m)
    39a7:	00 00 00 00 
    39ab:	48 8d 85 58 ff ff ff 	[33mlea    [0m[35m-[0m[35m0xa8[0m([34m%rbp[0m),[34m%rax[0m
    39b2:	48 89 c7             	[33mmov    [0m[34m%rax[0m,[34m%rdi[0m
    39b5:	e8 86 fc ff ff       	[33mcall   [0m[35m3640[0m <[32mFT_Init_FreeType@plt[0m>
    39ba:	89 85 3c ff ff ff    	[33mmov    [0m[34m%eax[0m,[35m-[0m[35m0xc4[0m([34m%rbp[0m)
    39c0:	83 bd 3c ff ff ff 00 	[33mcmpl   [0m[35m$[0m[35m0x0[0m,[35m-[0m[35m0xc4[0m([34m%rbp[0m)
    39c7:	74 2d                	[33mje     [0m[35m39f6[0m <[32mmain[0m[35m+0x[0m[35m81[0m>
    39c9:	48 8b 05 50 eb 00 00 	[33mmov    [0m[35m0xeb50[0m([34m%rip[0m),[34m%rax[0m        # 12520 <stderr@GLIBC_2.2.5>
    39d0:	48 89 c1             	[33mmov    [0m[34m%rax[0m,[34m%rcx[0m
    39d3:	ba 2e 00 00 00       	[33mmov    [0m[35m$[0m[35m0x2e[0m,[34m%edx[0m
    39d8:	be 01 00 00 00       	[33mmov    [0m[35m$[0m[35m0x1[0m,[34m%esi[0m
    39dd:	48 8d 05 74 a6 00 00 	[33mlea    [0m[35m0xa674[0m([34m%rip[0m),[34m%rax[0m        # e058 <_IO_stdin_used+0x58>
    39e4:	48 89 c7             	[33mmov    [0m[34m%rax[0m,[34m%rdi[0m
    39e7:	e8 a4 fd ff ff       	[33mcall   [0m[35m3790[0m <[32mfwrite@plt[0m>
    39ec:	b8 01 00 00 00       	[33mmov    [0m[35m$[0m[35m0x1[0m,[34m%eax[0m
    39f1:	e9 be 0e 00 00       	[33mjmp    [0m[35m48b4[0m <[32mmain[0m[35m+0x[0m[35mf3f[0m>
    39f6:	48 8d 05 8a a6 00 00 	[33mlea    [0m[35m0xa68a[0m([34m%rip[0m),[34m%rax[0m        # e087 <_IO_stdin_used+0x87>
    39fd:	48 89 85 78 ff ff ff 	[33mmov    [0m[34m%rax[0m,[35m-[0m[35m0x88[0m([34m%rbp[0m)
    3a04:	48 8b 85 58 ff ff ff 	[33mmov    [0m[35m-[0m[35m0xa8[0m([34m%rbp[0m),[34m%rax[0m
    3a0b:	48 8d 95 60 ff ff ff 	[33mlea    [0m[35m-[0m[35m0xa0[0m([34m%rbp[0m),[34m%rdx[0m
    3a12:	48 8b b5 78 ff ff ff 	[33mmov    [0m[35m-[0m[35m0x88[0m([34m%rbp[0m),[34m%rsi[0m
    3a19:	48 89 d1             	[33mmov    [0m[34m%rdx[0m,[34m%rcx[0m
    3a1c:	ba 00 00 00 00       	[33mmov    [0m[35m$[0m[35m0x0[0m,[34m%edx[0m
    3a21:	48 89 c7             	[33mmov    [0m[34m%rax[0m,[34m%rdi[0m
    3a24:	e8 e7 fc ff ff       	[33mcall   [0m[35m3710[0m <[32mFT_New_Face@plt[0m>
    3a29:	89 85 3c ff ff ff    	[33mmov    [0m[34m%eax[0m,[35m-[0m[35m0xc4[0m([34m%rbp[0m)
    3a2f:	83 bd 3c ff ff ff 02 	[33mcmpl   [0m[35m$[0m[35m0x2[0m,[35m-[0m[35m0xc4[0m([34m%rbp[0m)
    3a36:	75 2f                	[33mjne    [0m[35m3a67[0m <[32mmain[0m[35m+0x[0m[35mf2[0m>
    3a38:	48 8b 05 e1 ea 00 00 	[33mmov    [0m[35m0xeae1[0m([34m%rip[0m),[34m%rax[0m        # 12520 <stderr@GLIBC_2.2.5>
    3a3f:	48 8b 95 78 ff ff ff 	[33mmov    [0m[35m-[0m[35m0x88[0m([34m%rbp[0m),[34m%rdx[0m
    3a46:	48 8d 0d 5b a6 00 00 	[33mlea    [0m[35m0xa65b[0m([34m%rip[0m),[34m%rcx[0m        # e0a8 <_IO_stdin_used+0xa8>
    3a4d:	48 89 ce             	[33mmov    [0m[34m%rcx[0m,[34m%rsi[0m
    3a50:	48 89 c7             	[33mmov    [0m[34m%rax[0m,[34m%rdi[0m
    3a53:	b8 00 00 00 00       	[33mmov    [0m[35m$[0m[35m0x0[0m,[34m%eax[0m
    3a58:	e8 63 fd ff ff       	[33mcall   [0m[35m37c0[0m <[32mfprintf@plt[0m>
    3a5d:	b8 01 00 00 00       	[33mmov    [0m[35m$[0m[35m0x1[0m,[34m%eax[0m
    3a62:	e9 4d 0e 00 00       	[33mjmp    [0m[35m48b4[0m <[32mmain[0m[35m+0x[0m[35mf3f[0m>
    3a67:	83 bd 3c ff ff ff 00 	[33mcmpl   [0m[35m$[0m[35m0x0[0m,[35m-[0m[35m0xc4[0m([34m%rbp[0m)
    3a6e:	74 2f                	[33mje     [0m[35m3a9f[0m <[32mmain[0m[35m+0x[0m[35m12a[0m>
    3a70:	48 8b 05 a9 ea 00 00 	[33mmov    [0m[35m0xeaa9[0m([34m%rip[0m),[34m%rax[0m        # 12520 <stderr@GLIBC_2.2.5>
    3a77:	48 8b 95 78 ff ff ff 	[33mmov    [0m[35m-[0m[35m0x88[0m([34m%rbp[0m),[34m%rdx[0m
    3a7e:	48 8d 0d 4b a6 00 00 	[33mlea    [0m[35m0xa64b[0m([34m%rip[0m),[34m%rcx[0m        # e0d0 <_IO_stdin_used+0xd0>
    3a85:	48 89 ce             	[33mmov    [0m[34m%rcx[0m,[34m%rsi[0m
    3a88:	48 89 c7             	[33mmov    [0m[34m%rax[0m,[34m%rdi[0m
    3a8b:	b8 00 00 00 00       	[33mmov    [0m[35m$[0m[35m0x0[0m,[34m%eax[0m
    3a90:	e8 2b fd ff ff       	[33mcall   [0m[35m37c0[0m <[32mfprintf@plt[0m>
    3a95:	b8 01 00 00 00       	[33mmov    [0m[35m$[0m[35m0x1[0m,[34m%eax[0m
    3a9a:	e9 15 0e 00 00       	[33mjmp    [0m[35m48b4[0m <[32mmain[0m[35m+0x[0m[35mf3f[0m>
    3a9f:	c7 85 40 ff ff ff 40 	[33mmovl   [0m[35m$[0m[35m0x40[0m,[35m-[0m[35m0xc0[0m([34m%rbp[0m)
    3aa6:	00 00 00 
    3aa9:	48 8b 85 60 ff ff ff 	[33mmov    [0m[35m-[0m[35m0xa0[0m([34m%rbp[0m),[34m%rax[0m
    3ab0:	8b 95 40 ff ff ff    	[33mmov    [0m[35m-[0m[35m0xc0[0m([34m%rbp[0m),[34m%edx[0m
    3ab6:	be 00 00 00 00       	[33mmov    [0m[35m$[0m[35m0x0[0m,[34m%esi[0m
    3abb:	48 89 c7             	[33mmov    [0m[34m%rax[0m,[34m%rdi[0m
    3abe:	e8 9d f9 ff ff       	[33mcall   [0m[35m3460[0m <[32mFT_Set_Pixel_Sizes@plt[0m>
    3ac3:	89 85 3c ff ff ff    	[33mmov    [0m[34m%eax[0m,[35m-[0m[35m0xc4[0m([34m%rbp[0m)
    3ac9:	83 bd 3c ff ff ff 00 	[33mcmpl   [0m[35m$[0m[35m0x0[0m,[35m-[0m[35m0xc4[0m([34m%rbp[0m)
    3ad0:	74 2e                	[33mje     [0m[35m3b00[0m <[32mmain[0m[35m+0x[0m[35m18b[0m>
    3ad2:	48 8b 05 47 ea 00 00 	[33mmov    [0m[35m0xea47[0m([34m%rip[0m),[34m%rax[0m        # 12520 <stderr@GLIBC_2.2.5>
    3ad9:	8b 95 40 ff ff ff    	[33mmov    [0m[35m-[0m[35m0xc0[0m([34m%rbp[0m),[34m%edx[0m
    3adf:	48 8d 0d 12 a6 00 00 	[33mlea    [0m[35m0xa612[0m([34m%rip[0m),[34m%rcx[0m        # e0f8 <_IO_stdin_used+0xf8>
    3ae6:	48 89 ce             	[33mmov    [0m[34m%rcx[0m,[34m%rsi[0m
    3ae9:	48 89 c7             	[33mmov    [0m[34m%rax[0m,[34m%rdi[0m
    3aec:	b8 00 00 00 00       	[33mmov    [0m[35m$[0m[35m0x0[0m,[34m%eax[0m
    3af1:	e8 ca fc ff ff       	[33mcall   [0m[35m37c0[0m <[32mfprintf@plt[0m>
    3af6:	b8 01 00 00 00       	[33mmov    [0m[35m$[0m[35m0x1[0m,[34m%eax[0m
    3afb:	e9 b4 0d 00 00       	[33mjmp    [0m[35m48b4[0m <[32mmain[0m[35m+0x[0m[35mf3f[0m>
    3b00:	83 bd 2c ff ff ff 01 	[33mcmpl   [0m[35m$[0m[35m0x1[0m,[35m-[0m[35m0xd4[0m([34m%rbp[0m)
    3b07:	7e 6d                	[33mjle    [0m[35m3b76[0m <[32mmain[0m[35m+0x[0m[35m201[0m>
    3b09:	48 8b 85 20 ff ff ff 	[33mmov    [0m[35m-[0m[35m0xe0[0m([34m%rbp[0m),[34m%rax[0m
    3b10:	48 8b 40 08          	[33mmov    [0m[35m0x8[0m([34m%rax[0m),[34m%rax[0m
    3b14:	48 89 45 80          	[33mmov    [0m[34m%rax[0m,[35m-[0m[35m0x80[0m([34m%rbp[0m)
    3b18:	48 8b 45 80          	[33mmov    [0m[35m-[0m[35m0x80[0m([34m%rbp[0m),[34m%rax[0m
    3b1c:	48 89 c6             	[33mmov    [0m[34m%rax[0m,[34m%rsi[0m
    3b1f:	48 8d 05 ba 78 aa 03 	[33mlea    [0m[35m0x3aa78ba[0m([34m%rip[0m),[34m%rax[0m        # 3aab3e0 <editor>
    3b26:	48 89 c7             	[33mmov    [0m[34m%rax[0m,[34m%rdi[0m
    3b29:	e8 d1 19 00 00       	[33mcall   [0m[35m54ff[0m <[32meditor_load_from_file[0m>
    3b2e:	89 85 44 ff ff ff    	[33mmov    [0m[34m%eax[0m,[35m-[0m[35m0xbc[0m([34m%rbp[0m)
    3b34:	83 bd 44 ff ff ff 00 	[33mcmpl   [0m[35m$[0m[35m0x0[0m,[35m-[0m[35m0xbc[0m([34m%rbp[0m)
    3b3b:	74 39                	[33mje     [0m[35m3b76[0m <[32mmain[0m[35m+0x[0m[35m201[0m>
    3b3d:	8b 85 44 ff ff ff    	[33mmov    [0m[35m-[0m[35m0xbc[0m([34m%rbp[0m),[34m%eax[0m
    3b43:	89 c7                	[33mmov    [0m[34m%eax[0m,[34m%edi[0m
    3b45:	e8 d6 fa ff ff       	[33mcall   [0m[35m3620[0m <[32mstrerror@plt[0m>
    3b4a:	48 89 c1             	[33mmov    [0m[34m%rax[0m,[34m%rcx[0m
    3b4d:	48 8b 05 cc e9 00 00 	[33mmov    [0m[35m0xe9cc[0m([34m%rip[0m),[34m%rax[0m        # 12520 <stderr@GLIBC_2.2.5>
    3b54:	48 8b 55 80          	[33mmov    [0m[35m-[0m[35m0x80[0m([34m%rbp[0m),[34m%rdx[0m
    3b58:	48 8d 35 c1 a5 00 00 	[33mlea    [0m[35m0xa5c1[0m([34m%rip[0m),[34m%rsi[0m        # e120 <_IO_stdin_used+0x120>
    3b5f:	48 89 c7             	[33mmov    [0m[34m%rax[0m,[34m%rdi[0m
    3b62:	b8 00 00 00 00       	[33mmov    [0m[35m$[0m[35m0x0[0m,[34m%eax[0m
    3b67:	e8 54 fc ff ff       	[33mcall   [0m[35m37c0[0m <[32mfprintf@plt[0m>
    3b6c:	b8 01 00 00 00       	[33mmov    [0m[35m$[0m[35m0x1[0m,[34m%eax[0m
    3b71:	e9 3e 0d 00 00       	[33mjmp    [0m[35m48b4[0m <[32mmain[0m[35m+0x[0m[35mf3f[0m>
    3b76:	48 8d 05 c6 a5 00 00 	[33mlea    [0m[35m0xa5c6[0m([34m%rip[0m),[34m%rax[0m        # e143 <_IO_stdin_used+0x143>
    3b7d:	48 89 45 88          	[33mmov    [0m[34m%rax[0m,[35m-[0m[35m0x78[0m([34m%rbp[0m)
    3b81:	48 8b 45 88          	[33mmov    [0m[35m-[0m[35m0x78[0m([34m%rbp[0m),[34m%rax[0m
    3b85:	48 89 c6             	[33mmov    [0m[34m%rax[0m,[34m%rsi[0m
    3b88:	48 8d 05 11 79 aa 03 	[33mlea    [0m[35m0x3aa7911[0m([34m%rip[0m),[34m%rax[0m        # 3aab4a0 <fb>
    3b8f:	48 89 c7             	[33mmov    [0m[34m%rax[0m,[34m%rdi[0m
    3b92:	e8 56 3d 00 00       	[33mcall   [0m[35m78ed[0m <[32mfb_open_dir[0m>
    3b97:	89 85 44 ff ff ff    	[33mmov    [0m[34m%eax[0m,[35m-[0m[35m0xbc[0m([34m%rbp[0m)
    3b9d:	83 bd 44 ff ff ff 00 	[33mcmpl   [0m[35m$[0m[35m0x0[0m,[35m-[0m[35m0xbc[0m([34m%rbp[0m)
    3ba4:	74 39                	[33mje     [0m[35m3bdf[0m <[32mmain[0m[35m+0x[0m[35m26a[0m>
    3ba6:	8b 85 44 ff ff ff    	[33mmov    [0m[35m-[0m[35m0xbc[0m([34m%rbp[0m),[34m%eax[0m
    3bac:	89 c7                	[33mmov    [0m[34m%eax[0m,[34m%edi[0m
    3bae:	e8 6d fa ff ff       	[33mcall   [0m[35m3620[0m <[32mstrerror@plt[0m>
    3bb3:	48 89 c1             	[33mmov    [0m[34m%rax[0m,[34m%rcx[0m
    3bb6:	48 8b 05 63 e9 00 00 	[33mmov    [0m[35m0xe963[0m([34m%rip[0m),[34m%rax[0m        # 12520 <stderr@GLIBC_2.2.5>
    3bbd:	48 8b 55 88          	[33mmov    [0m[35m-[0m[35m0x78[0m([34m%rbp[0m),[34m%rdx[0m
    3bc1:	48 8d 35 80 a5 00 00 	[33mlea    [0m[35m0xa580[0m([34m%rip[0m),[34m%rsi[0m        # e148 <_IO_stdin_used+0x148>
    3bc8:	48 89 c7             	[33mmov    [0m[34m%rax[0m,[34m%rdi[0m
    3bcb:	b8 00 00 00 00       	[33mmov    [0m[35m$[0m[35m0x0[0m,[34m%eax[0m
    3bd0:	e8 eb fb ff ff       	[33mcall   [0m[35m37c0[0m <[32mfprintf@plt[0m>
    3bd5:	b8 01 00 00 00       	[33mmov    [0m[35m$[0m[35m0x1[0m,[34m%eax[0m
    3bda:	e9 d5 0c 00 00       	[33mjmp    [0m[35m48b4[0m <[32mmain[0m[35m+0x[0m[35mf3f[0m>
    3bdf:	bf 20 00 00 00       	[33mmov    [0m[35m$[0m[35m0x20[0m,[34m%edi[0m
    3be4:	e8 d7 f9 ff ff       	[33mcall   [0m[35m35c0[0m <[32mSDL_Init@plt[0m>
    3be9:	85 c0                	[33mtest   [0m[34m%eax[0m,[34m%eax[0m
    3beb:	79 30                	[33mjns    [0m[35m3c1d[0m <[32mmain[0m[35m+0x[0m[35m2a8[0m>
    3bed:	e8 be fb ff ff       	[33mcall   [0m[35m37b0[0m <[32mSDL_GetError@plt[0m>
    3bf2:	48 89 c2             	[33mmov    [0m[34m%rax[0m,[34m%rdx[0m
    3bf5:	48 8b 05 24 e9 00 00 	[33mmov    [0m[35m0xe924[0m([34m%rip[0m),[34m%rax[0m        # 12520 <stderr@GLIBC_2.2.5>
    3bfc:	48 8d 0d 6d a5 00 00 	[33mlea    [0m[35m0xa56d[0m([34m%rip[0m),[34m%rcx[0m        # e170 <_IO_stdin_used+0x170>
    3c03:	48 89 ce             	[33mmov    [0m[34m%rcx[0m,[34m%rsi[0m
    3c06:	48 89 c7             	[33mmov    [0m[34m%rax[0m,[34m%rdi[0m
    3c09:	b8 00 00 00 00       	[33mmov    [0m[35m$[0m[35m0x0[0m,[34m%eax[0m
    3c0e:	e8 ad fb ff ff       	[33mcall   [0m[35m37c0[0m <[32mfprintf@plt[0m>
    3c13:	b8 01 00 00 00       	[33mmov    [0m[35m$[0m[35m0x1[0m,[34m%eax[0m
    3c18:	e9 97 0c 00 00       	[33mjmp    [0m[35m48b4[0m <[32mmain[0m[35m+0x[0m[35mf3f[0m>
    3c1d:	41 b9 22 00 00 00    	[33mmov    [0m[35m$[0m[35m0x22[0m,[34m%r9d[0m
    3c23:	41 b8 58 02 00 00    	[33mmov    [0m[35m$[0m[35m0x258[0m,[34m%r8d[0m
    3c29:	b9 20 03 00 00       	[33mmov    [0m[35m$[0m[35m0x320[0m,[34m%ecx[0m
    3c2e:	ba 00 00 00 00       	[33mmov    [0m[35m$[0m[35m0x0[0m,[34m%edx[0m
    3c33:	be 00 00 00 00       	[33mmov    [0m[35m$[0m[35m0x0[0m,[34m%esi[0m
    3c38:	48 8d 05 56 a5 00 00 	[33mlea    [0m[35m0xa556[0m([34m%rip[0m),[34m%rax[0m        # e195 <_IO_stdin_used+0x195>
    3c3f:	48 89 c7             	[33mmov    [0m[34m%rax[0m,[34m%rdi[0m
    3c42:	e8 69 f9 ff ff       	[33mcall   [0m[35m35b0[0m <[32mSDL_CreateWindow@plt[0m>
    3c47:	48 89 45 90          	[33mmov    [0m[34m%rax[0m,[35m-[0m[35m0x70[0m([34m%rbp[0m)
    3c4b:	48 83 7d 90 00       	[33mcmpq   [0m[35m$[0m[35m0x0[0m,[35m-[0m[35m0x70[0m([34m%rbp[0m)
    3c50:	75 30                	[33mjne    [0m[35m3c82[0m <[32mmain[0m[35m+0x[0m[35m30d[0m>
    3c52:	e8 59 fb ff ff       	[33mcall   [0m[35m37b0[0m <[32mSDL_GetError@plt[0m>
    3c57:	48 89 c2             	[33mmov    [0m[34m%rax[0m,[34m%rdx[0m
    3c5a:	48 8b 05 bf e8 00 00 	[33mmov    [0m[35m0xe8bf[0m([34m%rip[0m),[34m%rax[0m        # 12520 <stderr@GLIBC_2.2.5>
    3c61:	48 8d 0d 38 a5 00 00 	[33mlea    [0m[35m0xa538[0m([34m%rip[0m),[34m%rcx[0m        # e1a0 <_IO_stdin_used+0x1a0>
    3c68:	48 89 ce             	[33mmov    [0m[34m%rcx[0m,[34m%rsi[0m
    3c6b:	48 89 c7             	[33mmov    [0m[34m%rax[0m,[34m%rdi[0m
    3c6e:	b8 00 00 00 00       	[33mmov    [0m[35m$[0m[35m0x0[0m,[34m%eax[0m
    3c73:	e8 48 fb ff ff       	[33mcall   [0m[35m37c0[0m <[32mfprintf@plt[0m>
    3c78:	b8 01 00 00 00       	[33mmov    [0m[35m$[0m[35m0x1[0m,[34m%eax[0m
    3c7d:	e9 32 0c 00 00       	[33mjmp    [0m[35m48b4[0m <[32mmain[0m[35m+0x[0m[35mf3f[0m>
    3c82:	be 03 00 00 00       	[33mmov    [0m[35m$[0m[35m0x3[0m,[34m%esi[0m
    3c87:	bf 11 00 00 00       	[33mmov    [0m[35m$[0m[35m0x11[0m,[34m%edi[0m
    3c8c:	e8 cf f9 ff ff       	[33mcall   [0m[35m3660[0m <[32mSDL_GL_SetAttribute@plt[0m>
    3c91:	be 03 00 00 00       	[33mmov    [0m[35m$[0m[35m0x3[0m,[34m%esi[0m
    3c96:	bf 12 00 00 00       	[33mmov    [0m[35m$[0m[35m0x12[0m,[34m%edi[0m
    3c9b:	e8 c0 f9 ff ff       	[33mcall   [0m[35m3660[0m <[32mSDL_GL_SetAttribute@plt[0m>
    3ca0:	be 01 00 00 00       	[33mmov    [0m[35m$[0m[35m0x1[0m,[34m%esi[0m
    3ca5:	bf 15 00 00 00       	[33mmov    [0m[35m$[0m[35m0x15[0m,[34m%edi[0m
    3caa:	e8 b1 f9 ff ff       	[33mcall   [0m[35m3660[0m <[32mSDL_GL_SetAttribute@plt[0m>
    3caf:	48 8d 85 38 ff ff ff 	[33mlea    [0m[35m-[0m[35m0xc8[0m([34m%rbp[0m),[34m%rax[0m
    3cb6:	48 89 c6             	[33mmov    [0m[34m%rax[0m,[34m%rsi[0m
    3cb9:	bf 11 00 00 00       	[33mmov    [0m[35m$[0m[35m0x11[0m,[34m%edi[0m
    3cbe:	e8 8d f8 ff ff       	[33mcall   [0m[35m3550[0m <[32mSDL_GL_GetAttribute@plt[0m>
    3cc3:	48 8d 45 b0          	[33mlea    [0m[35m-[0m[35m0x50[0m([34m%rbp[0m),[34m%rax[0m
    3cc7:	48 89 c6             	[33mmov    [0m[34m%rax[0m,[34m%rsi[0m
    3cca:	bf 12 00 00 00       	[33mmov    [0m[35m$[0m[35m0x12[0m,[34m%edi[0m
    3ccf:	e8 7c f8 ff ff       	[33mcall   [0m[35m3550[0m <[32mSDL_GL_GetAttribute@plt[0m>
    3cd4:	8b 55 b0             	[33mmov    [0m[35m-[0m[35m0x50[0m([34m%rbp[0m),[34m%edx[0m
    3cd7:	8b 85 38 ff ff ff    	[33mmov    [0m[35m-[0m[35m0xc8[0m([34m%rbp[0m),[34m%eax[0m
    3cdd:	89 c6                	[33mmov    [0m[34m%eax[0m,[34m%esi[0m
    3cdf:	48 8d 05 e2 a4 00 00 	[33mlea    [0m[35m0xa4e2[0m([34m%rip[0m),[34m%rax[0m        # e1c8 <_IO_stdin_used+0x1c8>
    3ce6:	48 89 c7             	[33mmov    [0m[34m%rax[0m,[34m%rdi[0m
    3ce9:	b8 00 00 00 00       	[33mmov    [0m[35m$[0m[35m0x0[0m,[34m%eax[0m
    3cee:	e8 4d f7 ff ff       	[33mcall   [0m[35m3440[0m <[32mprintf@plt[0m>
    3cf3:	48 8b 45 90          	[33mmov    [0m[35m-[0m[35m0x70[0m([34m%rbp[0m),[34m%rax[0m
    3cf7:	48 89 c7             	[33mmov    [0m[34m%rax[0m,[34m%rdi[0m
    3cfa:	e8 a1 f9 ff ff       	[33mcall   [0m[35m36a0[0m <[32mSDL_GL_CreateContext@plt[0m>
    3cff:	48 85 c0             	[33mtest   [0m[34m%rax[0m,[34m%rax[0m
    3d02:	75 30                	[33mjne    [0m[35m3d34[0m <[32mmain[0m[35m+0x[0m[35m3bf[0m>
    3d04:	e8 a7 fa ff ff       	[33mcall   [0m[35m37b0[0m <[32mSDL_GetError@plt[0m>
    3d09:	48 89 c2             	[33mmov    [0m[34m%rax[0m,[34m%rdx[0m
    3d0c:	48 8b 05 0d e8 00 00 	[33mmov    [0m[35m0xe80d[0m([34m%rip[0m),[34m%rax[0m        # 12520 <stderr@GLIBC_2.2.5>
    3d13:	48 8d 0d c6 a4 00 00 	[33mlea    [0m[35m0xa4c6[0m([34m%rip[0m),[34m%rcx[0m        # e1e0 <_IO_stdin_used+0x1e0>
    3d1a:	48 89 ce             	[33mmov    [0m[34m%rcx[0m,[34m%rsi[0m
    3d1d:	48 89 c7             	[33mmov    [0m[34m%rax[0m,[34m%rdi[0m
    3d20:	b8 00 00 00 00       	[33mmov    [0m[35m$[0m[35m0x0[0m,[34m%eax[0m
    3d25:	e8 96 fa ff ff       	[33mcall   [0m[35m37c0[0m <[32mfprintf@plt[0m>
    3d2a:	b8 01 00 00 00       	[33mmov    [0m[35m$[0m[35m0x1[0m,[34m%eax[0m
    3d2f:	e9 80 0b 00 00       	[33mjmp    [0m[35m48b4[0m <[32mmain[0m[35m+0x[0m[35mf3f[0m>
    3d34:	e8 97 f8 ff ff       	[33mcall   [0m[35m35d0[0m <[32mglewInit@plt[0m>
    3d39:	89 85 48 ff ff ff    	[33mmov    [0m[34m%eax[0m,[35m-[0m[35m0xb8[0m([34m%rbp[0m)
    3d3f:	83 bd 48 ff ff ff 00 	[33mcmpl   [0m[35m$[0m[35m0x0[0m,[35m-[0m[35m0xb8[0m([34m%rbp[0m)
    3d46:	74 38                	[33mje     [0m[35m3d80[0m <[32mmain[0m[35m+0x[0m[35m40b[0m>
    3d48:	8b 85 48 ff ff ff    	[33mmov    [0m[35m-[0m[35m0xb8[0m([34m%rbp[0m),[34m%eax[0m
    3d4e:	89 c7                	[33mmov    [0m[34m%eax[0m,[34m%edi[0m
    3d50:	e8 db f8 ff ff       	[33mcall   [0m[35m3630[0m <[32mglewGetErrorString@plt[0m>
    3d55:	48 89 c2             	[33mmov    [0m[34m%rax[0m,[34m%rdx[0m
    3d58:	48 8b 05 c1 e7 00 00 	[33mmov    [0m[35m0xe7c1[0m([34m%rip[0m),[34m%rax[0m        # 12520 <stderr@GLIBC_2.2.5>
    3d5f:	48 8d 0d aa a4 00 00 	[33mlea    [0m[35m0xa4aa[0m([34m%rip[0m),[34m%rcx[0m        # e210 <_IO_stdin_used+0x210>
    3d66:	48 89 ce             	[33mmov    [0m[34m%rcx[0m,[34m%rsi[0m
    3d69:	48 89 c7             	[33mmov    [0m[34m%rax[0m,[34m%rdi[0m
    3d6c:	b8 00 00 00 00       	[33mmov    [0m[35m$[0m[35m0x0[0m,[34m%eax[0m
    3d71:	e8 4a fa ff ff       	[33mcall   [0m[35m37c0[0m <[32mfprintf@plt[0m>
    3d76:	b8 01 00 00 00       	[33mmov    [0m[35m$[0m[35m0x1[0m,[34m%eax[0m
    3d7b:	e9 34 0b 00 00       	[33mjmp    [0m[35m48b4[0m <[32mmain[0m[35m+0x[0m[35mf3f[0m>
    3d80:	bf e2 0b 00 00       	[33mmov    [0m[35m$[0m[35m0xbe2[0m,[34m%edi[0m
    3d85:	e8 a6 f6 ff ff       	[33mcall   [0m[35m3430[0m <[32mglEnable@plt[0m>
    3d8a:	be 03 03 00 00       	[33mmov    [0m[35m$[0m[35m0x303[0m,[34m%esi[0m
    3d8f:	bf 02 03 00 00       	[33mmov    [0m[35m$[0m[35m0x302[0m,[34m%edi[0m
    3d94:	e8 47 f8 ff ff       	[33mcall   [0m[35m35e0[0m <[32mglBlendFunc@plt[0m>
    3d99:	48 8d 05 50 e6 00 00 	[33mlea    [0m[35m0xe650[0m([34m%rip[0m),[34m%rax[0m        # 123f0 <__GLEW_ARB_debug_output@@Base>
    3da0:	0f b6 00             	[33mmovzbl [0m([34m%rax[0m),[34m%eax[0m
    3da3:	84 c0                	[33mtest   [0m[34m%al[0m,[34m%al[0m
    3da5:	74 24                	[33mje     [0m[35m3dcb[0m <[32mmain[0m[35m+0x[0m[35m456[0m>
    3da7:	bf e0 92 00 00       	[33mmov    [0m[35m$[0m[35m0x92e0[0m,[34m%edi[0m
    3dac:	e8 7f f6 ff ff       	[33mcall   [0m[35m3430[0m <[32mglEnable@plt[0m>
    3db1:	48 8b 05 d8 e6 00 00 	[33mmov    [0m[35m0xe6d8[0m([34m%rip[0m),[34m%rax[0m        # 12490 <__glewDebugMessageCallback@@Base>
    3db8:	be 00 00 00 00       	[33mmov    [0m[35m$[0m[35m0x0[0m,[34m%esi[0m
    3dbd:	48 8d 15 45 fb ff ff 	[33mlea    [0m[35m-[0m[35m0x4bb[0m([34m%rip[0m),[34m%rdx[0m        # 3909 <MessageCallback>
    3dc4:	48 89 d7             	[33mmov    [0m[34m%rdx[0m,[34m%rdi[0m
    3dc7:	ff d0                	[33mcall   [0m*[34m%rax[0m
    3dc9:	eb 23                	[33mjmp    [0m[35m3dee[0m <[32mmain[0m[35m+0x[0m[35m479[0m>
    3dcb:	48 8b 05 4e e7 00 00 	[33mmov    [0m[35m0xe74e[0m([34m%rip[0m),[34m%rax[0m        # 12520 <stderr@GLIBC_2.2.5>
    3dd2:	48 89 c1             	[33mmov    [0m[34m%rax[0m,[34m%rcx[0m
    3dd5:	ba 2f 00 00 00       	[33mmov    [0m[35m$[0m[35m0x2f[0m,[34m%edx[0m
    3dda:	be 01 00 00 00       	[33mmov    [0m[35m$[0m[35m0x1[0m,[34m%esi[0m
    3ddf:	48 8d 05 52 a4 00 00 	[33mlea    [0m[35m0xa452[0m([34m%rip[0m),[34m%rax[0m        # e238 <_IO_stdin_used+0x238>
    3de6:	48 89 c7             	[33mmov    [0m[34m%rax[0m,[34m%rdi[0m
    3de9:	e8 a2 f9 ff ff       	[33mcall   [0m[35m3790[0m <[32mfwrite@plt[0m>
    3dee:	48 8d 05 8b f5 00 00 	[33mlea    [0m[35m0xf58b[0m([34m%rip[0m),[34m%rax[0m        # 13380 <sr>
    3df5:	48 89 c7             	[33mmov    [0m[34m%rax[0m,[34m%rdi[0m
    3df8:	e8 cf 67 00 00       	[33mcall   [0m[35ma5cc[0m <[32msimple_renderer_init[0m>
    3dfd:	48 8b 85 60 ff ff ff 	[33mmov    [0m[35m-[0m[35m0xa0[0m([34m%rbp[0m),[34m%rax[0m
    3e04:	48 89 c6             	[33mmov    [0m[34m%rax[0m,[34m%rsi[0m
    3e07:	48 8d 05 52 e7 00 00 	[33mlea    [0m[35m0xe752[0m([34m%rip[0m),[34m%rax[0m        # 12560 <atlas>
    3e0e:	48 89 c7             	[33mmov    [0m[34m%rax[0m,[34m%rdi[0m
    3e11:	e8 6d 59 00 00       	[33mcall   [0m[35m9783[0m <[32mfree_glyph_atlas_init[0m>
    3e16:	48 8d 05 43 e7 00 00 	[33mlea    [0m[35m0xe743[0m([34m%rip[0m),[34m%rax[0m        # 12560 <atlas>
    3e1d:	48 89 05 bc 75 aa 03 	[33mmov    [0m[34m%rax[0m,[35m0x3aa75bc[0m([34m%rip[0m)        # 3aab3e0 <editor>
    3e24:	48 8d 05 b5 75 aa 03 	[33mlea    [0m[35m0x3aa75b5[0m([34m%rip[0m),[34m%rax[0m        # 3aab3e0 <editor>
    3e2b:	48 89 c7             	[33mmov    [0m[34m%rax[0m,[34m%rdi[0m
    3e2e:	e8 d7 21 00 00       	[33mcall   [0m[35m600a[0m <[32meditor_retokenize[0m>
    3e33:	c6 85 36 ff ff ff 00 	[33mmovb   [0m[35m$[0m[35m0x0[0m,[35m-[0m[35m0xca[0m([34m%rbp[0m)
    3e3a:	c6 85 37 ff ff ff 00 	[33mmovb   [0m[35m$[0m[35m0x0[0m,[35m-[0m[35m0xc9[0m([34m%rbp[0m)
    3e41:	e9 57 0a 00 00       	[33mjmp    [0m[35m489d[0m <[32mmain[0m[35m+0x[0m[35mf28[0m>
    3e46:	e8 95 f6 ff ff       	[33mcall   [0m[35m34e0[0m <[32mSDL_GetTicks@plt[0m>
    3e4b:	89 85 4c ff ff ff    	[33mmov    [0m[34m%eax[0m,[35m-[0m[35m0xb4[0m([34m%rbp[0m)
    3e51:	66 0f ef c0          	[33mpxor   [0m[34m%xmm0[0m,[34m%xmm0[0m
    3e55:	0f 29 45 c0          	[33mmovaps [0m[34m%xmm0[0m,[35m-[0m[35m0x40[0m([34m%rbp[0m)
    3e59:	0f 29 45 d0          	[33mmovaps [0m[34m%xmm0[0m,[35m-[0m[35m0x30[0m([34m%rbp[0m)
    3e5d:	0f 29 45 e0          	[33mmovaps [0m[34m%xmm0[0m,[35m-[0m[35m0x20[0m([34m%rbp[0m)
    3e61:	66 0f d6 45 f0       	[33mmovq   [0m[34m%xmm0[0m,[35m-[0m[35m0x10[0m([34m%rbp[0m)
    3e66:	e9 00 09 00 00       	[33mjmp    [0m[35m476b[0m <[32mmain[0m[35m+0x[0m[35mdf6[0m>
    3e6b:	8b 45 c0             	[33mmov    [0m[35m-[0m[35m0x40[0m([34m%rbp[0m),[34m%eax[0m
    3e6e:	3d 03 03 00 00       	[33mcmp    [0m[35m$[0m[35m0x303[0m,[34m%eax[0m
    3e73:	0f 84 75 08 00 00    	[33mje     [0m[35m46ee[0m <[32mmain[0m[35m+0x[0m[35md79[0m>
    3e79:	3d 03 03 00 00       	[33mcmp    [0m[35m$[0m[35m0x303[0m,[34m%eax[0m
    3e7e:	0f 87 e7 08 00 00    	[33mja     [0m[35m476b[0m <[32mmain[0m[35m+0x[0m[35mdf6[0m>
    3e84:	3d 00 01 00 00       	[33mcmp    [0m[35m$[0m[35m0x100[0m,[34m%eax[0m
    3e89:	74 0c                	[33mje     [0m[35m3e97[0m <[32mmain[0m[35m+0x[0m[35m522[0m>
    3e8b:	3d 00 03 00 00       	[33mcmp    [0m[35m$[0m[35m0x300[0m,[34m%eax[0m
    3e90:	74 11                	[33mje     [0m[35m3ea3[0m <[32mmain[0m[35m+0x[0m[35m52e[0m>
    3e92:	e9 d4 08 00 00       	[33mjmp    [0m[35m476b[0m <[32mmain[0m[35m+0x[0m[35mdf6[0m>
    3e97:	c6 85 36 ff ff ff 01 	[33mmovb   [0m[35m$[0m[35m0x1[0m,[35m-[0m[35m0xca[0m([34m%rbp[0m)
    3e9e:	e9 c8 08 00 00       	[33mjmp    [0m[35m476b[0m <[32mmain[0m[35m+0x[0m[35mdf6[0m>
    3ea3:	80 bd 37 ff ff ff 00 	[33mcmpb   [0m[35m$[0m[35m0x0[0m,[35m-[0m[35m0xc9[0m([34m%rbp[0m)
    3eaa:	0f 84 98 02 00 00    	[33mje     [0m[35m4148[0m <[32mmain[0m[35m+0x[0m[35m7d3[0m>
    3eb0:	8b 45 d4             	[33mmov    [0m[35m-[0m[35m0x2c[0m([34m%rbp[0m),[34m%eax[0m
    3eb3:	3d 52 00 00 40       	[33mcmp    [0m[35m$[0m[35m0x40000052[0m,[34m%eax[0m
    3eb8:	74 39                	[33mje     [0m[35m3ef3[0m <[32mmain[0m[35m+0x[0m[35m57e[0m>
    3eba:	3d 52 00 00 40       	[33mcmp    [0m[35m$[0m[35m0x40000052[0m,[34m%eax[0m
    3ebf:	0f 8f a2 08 00 00    	[33mjg     [0m[35m4767[0m <[32mmain[0m[35m+0x[0m[35mdf2[0m>
    3ec5:	3d 51 00 00 40       	[33mcmp    [0m[35m$[0m[35m0x40000051[0m,[34m%eax[0m
    3eca:	74 4e                	[33mje     [0m[35m3f1a[0m <[32mmain[0m[35m+0x[0m[35m5a5[0m>
    3ecc:	3d 51 00 00 40       	[33mcmp    [0m[35m$[0m[35m0x40000051[0m,[34m%eax[0m
    3ed1:	0f 8f 90 08 00 00    	[33mjg     [0m[35m4767[0m <[32mmain[0m[35m+0x[0m[35mdf2[0m>
    3ed7:	83 f8 0d             	[33mcmp    [0m[35m$[0m[35m0xd[0m,[34m%eax[0m
    3eda:	74 70                	[33mje     [0m[35m3f4c[0m <[32mmain[0m[35m+0x[0m[35m5d7[0m>
    3edc:	3d 3c 00 00 40       	[33mcmp    [0m[35m$[0m[35m0x4000003c[0m,[34m%eax[0m
    3ee1:	0f 85 80 08 00 00    	[33mjne    [0m[35m4767[0m <[32mmain[0m[35m+0x[0m[35mdf2[0m>
    3ee7:	c6 85 37 ff ff ff 00 	[33mmovb   [0m[35m$[0m[35m0x0[0m,[35m-[0m[35m0xc9[0m([34m%rbp[0m)
    3eee:	e9 f9 07 00 00       	[33mjmp    [0m[35m46ec[0m <[32mmain[0m[35m+0x[0m[35md77[0m>
    3ef3:	48 8b 05 be 75 aa 03 	[33mmov    [0m[35m0x3aa75be[0m([34m%rip[0m),[34m%rax[0m        # 3aab4b8 <fb+0x18>
    3efa:	48 85 c0             	[33mtest   [0m[34m%rax[0m,[34m%rax[0m
    3efd:	0f 84 c4 07 00 00    	[33mje     [0m[35m46c7[0m <[32mmain[0m[35m+0x[0m[35md52[0m>
    3f03:	48 8b 05 ae 75 aa 03 	[33mmov    [0m[35m0x3aa75ae[0m([34m%rip[0m),[34m%rax[0m        # 3aab4b8 <fb+0x18>
    3f0a:	48 83 e8 01          	[33msub    [0m[35m$[0m[35m0x1[0m,[34m%rax[0m
    3f0e:	48 89 05 a3 75 aa 03 	[33mmov    [0m[34m%rax[0m,[35m0x3aa75a3[0m([34m%rip[0m)        # 3aab4b8 <fb+0x18>
    3f15:	e9 ad 07 00 00       	[33mjmp    [0m[35m46c7[0m <[32mmain[0m[35m+0x[0m[35md52[0m>
    3f1a:	48 8b 05 97 75 aa 03 	[33mmov    [0m[35m0x3aa7597[0m([34m%rip[0m),[34m%rax[0m        # 3aab4b8 <fb+0x18>
    3f21:	48 8d 50 01          	[33mlea    [0m[35m0x1[0m([34m%rax[0m),[34m%rdx[0m
    3f25:	48 8b 05 7c 75 aa 03 	[33mmov    [0m[35m0x3aa757c[0m([34m%rip[0m),[34m%rax[0m        # 3aab4a8 <fb+0x8>
    3f2c:	48 39 c2             	[33mcmp    [0m[34m%rax[0m,[34m%rdx[0m
    3f2f:	0f 83 98 07 00 00    	[33mjae    [0m[35m46cd[0m <[32mmain[0m[35m+0x[0m[35md58[0m>
    3f35:	48 8b 05 7c 75 aa 03 	[33mmov    [0m[35m0x3aa757c[0m([34m%rip[0m),[34m%rax[0m        # 3aab4b8 <fb+0x18>
    3f3c:	48 83 c0 01          	[33madd    [0m[35m$[0m[35m0x1[0m,[34m%rax[0m
    3f40:	48 89 05 71 75 aa 03 	[33mmov    [0m[34m%rax[0m,[35m0x3aa7571[0m([34m%rip[0m)        # 3aab4b8 <fb+0x18>
    3f47:	e9 81 07 00 00       	[33mjmp    [0m[35m46cd[0m <[32mmain[0m[35m+0x[0m[35md58[0m>
    3f4c:	48 8d 05 4d 75 aa 03 	[33mlea    [0m[35m0x3aa754d[0m([34m%rip[0m),[34m%rax[0m        # 3aab4a0 <fb>
    3f53:	48 89 c7             	[33mmov    [0m[34m%rax[0m,[34m%rdi[0m
    3f56:	e8 20 53 00 00       	[33mcall   [0m[35m927b[0m <[32mfb_file_path[0m>
    3f5b:	48 89 45 a8          	[33mmov    [0m[34m%rax[0m,[35m-[0m[35m0x58[0m([34m%rbp[0m)
    3f5f:	48 83 7d a8 00       	[33mcmpq   [0m[35m$[0m[35m0x0[0m,[35m-[0m[35m0x58[0m([34m%rbp[0m)
    3f64:	0f 84 69 07 00 00    	[33mje     [0m[35m46d3[0m <[32mmain[0m[35m+0x[0m[35md5e[0m>
    3f6a:	48 8d 55 b0          	[33mlea    [0m[35m-[0m[35m0x50[0m([34m%rbp[0m),[34m%rdx[0m
    3f6e:	48 8b 45 a8          	[33mmov    [0m[35m-[0m[35m0x58[0m([34m%rbp[0m),[34m%rax[0m
    3f72:	48 89 d6             	[33mmov    [0m[34m%rdx[0m,[34m%rsi[0m
    3f75:	48 89 c7             	[33mmov    [0m[34m%rax[0m,[34m%rdi[0m
    3f78:	e8 6e 86 00 00       	[33mcall   [0m[35mc5eb[0m <[32mtype_of_file[0m>
    3f7d:	89 85 44 ff ff ff    	[33mmov    [0m[34m%eax[0m,[35m-[0m[35m0xbc[0m([34m%rbp[0m)
    3f83:	83 bd 44 ff ff ff 00 	[33mcmpl   [0m[35m$[0m[35m0x0[0m,[35m-[0m[35m0xbc[0m([34m%rbp[0m)
    3f8a:	74 48                	[33mje     [0m[35m3fd4[0m <[32mmain[0m[35m+0x[0m[35m65f[0m>
    3f8c:	8b 85 44 ff ff ff    	[33mmov    [0m[35m-[0m[35m0xbc[0m([34m%rbp[0m),[34m%eax[0m
    3f92:	89 c7                	[33mmov    [0m[34m%eax[0m,[34m%edi[0m
    3f94:	e8 87 f6 ff ff       	[33mcall   [0m[35m3620[0m <[32mstrerror@plt[0m>
    3f99:	48 89 c1             	[33mmov    [0m[34m%rax[0m,[34m%rcx[0m
    3f9c:	48 8b 05 7d e5 00 00 	[33mmov    [0m[35m0xe57d[0m([34m%rip[0m),[34m%rax[0m        # 12520 <stderr@GLIBC_2.2.5>
    3fa3:	48 8b 55 a8          	[33mmov    [0m[35m-[0m[35m0x58[0m([34m%rbp[0m),[34m%rdx[0m
    3fa7:	48 8d 35 ba a2 00 00 	[33mlea    [0m[35m0xa2ba[0m([34m%rip[0m),[34m%rsi[0m        # e268 <_IO_stdin_used+0x268>
    3fae:	48 89 c7             	[33mmov    [0m[34m%rax[0m,[34m%rdi[0m
    3fb1:	b8 00 00 00 00       	[33mmov    [0m[35m$[0m[35m0x0[0m,[34m%eax[0m
    3fb6:	e8 05 f8 ff ff       	[33mcall   [0m[35m37c0[0m <[32mfprintf@plt[0m>
    3fbb:	48 8b 05 5e e5 00 00 	[33mmov    [0m[35m0xe55e[0m([34m%rip[0m),[34m%rax[0m        # 12520 <stderr@GLIBC_2.2.5>
    3fc2:	48 89 c6             	[33mmov    [0m[34m%rax[0m,[34m%rsi[0m
    3fc5:	bf 0a 00 00 00       	[33mmov    [0m[35m$[0m[35m0xa[0m,[34m%edi[0m
    3fca:	e8 71 f5 ff ff       	[33mcall   [0m[35m3540[0m <[32mfputc@plt[0m>
    3fcf:	e9 ff 06 00 00       	[33mjmp    [0m[35m46d3[0m <[32mmain[0m[35m+0x[0m[35md5e[0m>
    3fd4:	8b 45 b0             	[33mmov    [0m[35m-[0m[35m0x50[0m([34m%rbp[0m),[34m%eax[0m
    3fd7:	83 f8 02             	[33mcmp    [0m[35m$[0m[35m0x2[0m,[34m%eax[0m
    3fda:	0f 84 f3 00 00 00    	[33mje     [0m[35m40d3[0m <[32mmain[0m[35m+0x[0m[35m75e[0m>
    3fe0:	83 f8 02             	[33mcmp    [0m[35m$[0m[35m0x2[0m,[34m%eax[0m
    3fe3:	0f 87 22 01 00 00    	[33mja     [0m[35m410b[0m <[32mmain[0m[35m+0x[0m[35m796[0m>
    3fe9:	85 c0                	[33mtest   [0m[34m%eax[0m,[34m%eax[0m
    3feb:	74 73                	[33mje     [0m[35m4060[0m <[32mmain[0m[35m+0x[0m[35m6eb[0m>
    3fed:	83 f8 01             	[33mcmp    [0m[35m$[0m[35m0x1[0m,[34m%eax[0m
    3ff0:	0f 85 15 01 00 00    	[33mjne    [0m[35m410b[0m <[32mmain[0m[35m+0x[0m[35m796[0m>
    3ff6:	48 8d 05 a3 74 aa 03 	[33mlea    [0m[35m0x3aa74a3[0m([34m%rip[0m),[34m%rax[0m        # 3aab4a0 <fb>
    3ffd:	48 89 c7             	[33mmov    [0m[34m%rax[0m,[34m%rdi[0m
    4000:	e8 c4 46 00 00       	[33mcall   [0m[35m86c9[0m <[32mfb_change_dir[0m>
    4005:	89 85 44 ff ff ff    	[33mmov    [0m[34m%eax[0m,[35m-[0m[35m0xbc[0m([34m%rbp[0m)
    400b:	83 bd 44 ff ff ff 00 	[33mcmpl   [0m[35m$[0m[35m0x0[0m,[35m-[0m[35m0xbc[0m([34m%rbp[0m)
    4012:	0f 84 2a 01 00 00    	[33mje     [0m[35m4142[0m <[32mmain[0m[35m+0x[0m[35m7cd[0m>
    4018:	8b 85 44 ff ff ff    	[33mmov    [0m[35m-[0m[35m0xbc[0m([34m%rbp[0m),[34m%eax[0m
    401e:	89 c7                	[33mmov    [0m[34m%eax[0m,[34m%edi[0m
    4020:	e8 fb f5 ff ff       	[33mcall   [0m[35m3620[0m <[32mstrerror@plt[0m>
    4025:	48 89 c1             	[33mmov    [0m[34m%rax[0m,[34m%rcx[0m
    4028:	48 8b 05 f1 e4 00 00 	[33mmov    [0m[35m0xe4f1[0m([34m%rip[0m),[34m%rax[0m        # 12520 <stderr@GLIBC_2.2.5>
    402f:	48 8b 55 a8          	[33mmov    [0m[35m-[0m[35m0x58[0m([34m%rbp[0m),[34m%rdx[0m
    4033:	48 8d 35 56 a2 00 00 	[33mlea    [0m[35m0xa256[0m([34m%rip[0m),[34m%rsi[0m        # e290 <_IO_stdin_used+0x290>
    403a:	48 89 c7             	[33mmov    [0m[34m%rax[0m,[34m%rdi[0m
    403d:	b8 00 00 00 00       	[33mmov    [0m[35m$[0m[35m0x0[0m,[34m%eax[0m
    4042:	e8 79 f7 ff ff       	[33mcall   [0m[35m37c0[0m <[32mfprintf@plt[0m>
    4047:	48 8b 05 d2 e4 00 00 	[33mmov    [0m[35m0xe4d2[0m([34m%rip[0m),[34m%rax[0m        # 12520 <stderr@GLIBC_2.2.5>
    404e:	48 89 c6             	[33mmov    [0m[34m%rax[0m,[34m%rsi[0m
    4051:	bf 0a 00 00 00       	[33mmov    [0m[35m$[0m[35m0xa[0m,[34m%edi[0m
    4056:	e8 e5 f4 ff ff       	[33mcall   [0m[35m3540[0m <[32mfputc@plt[0m>
    405b:	e9 e2 00 00 00       	[33mjmp    [0m[35m4142[0m <[32mmain[0m[35m+0x[0m[35m7cd[0m>
    4060:	48 8b 45 a8          	[33mmov    [0m[35m-[0m[35m0x58[0m([34m%rbp[0m),[34m%rax[0m
    4064:	48 89 c6             	[33mmov    [0m[34m%rax[0m,[34m%rsi[0m
    4067:	48 8d 05 72 73 aa 03 	[33mlea    [0m[35m0x3aa7372[0m([34m%rip[0m),[34m%rax[0m        # 3aab3e0 <editor>
    406e:	48 89 c7             	[33mmov    [0m[34m%rax[0m,[34m%rdi[0m
    4071:	e8 89 14 00 00       	[33mcall   [0m[35m54ff[0m <[32meditor_load_from_file[0m>
    4076:	89 85 44 ff ff ff    	[33mmov    [0m[34m%eax[0m,[35m-[0m[35m0xbc[0m([34m%rbp[0m)
    407c:	83 bd 44 ff ff ff 00 	[33mcmpl   [0m[35m$[0m[35m0x0[0m,[35m-[0m[35m0xbc[0m([34m%rbp[0m)
    4083:	74 45                	[33mje     [0m[35m40ca[0m <[32mmain[0m[35m+0x[0m[35m755[0m>
    4085:	8b 85 44 ff ff ff    	[33mmov    [0m[35m-[0m[35m0xbc[0m([34m%rbp[0m),[34m%eax[0m
    408b:	89 c7                	[33mmov    [0m[34m%eax[0m,[34m%edi[0m
    408d:	e8 8e f5 ff ff       	[33mcall   [0m[35m3620[0m <[32mstrerror@plt[0m>
    4092:	48 89 c1             	[33mmov    [0m[34m%rax[0m,[34m%rcx[0m
    4095:	48 8b 05 84 e4 00 00 	[33mmov    [0m[35m0xe484[0m([34m%rip[0m),[34m%rax[0m        # 12520 <stderr@GLIBC_2.2.5>
    409c:	48 8b 55 a8          	[33mmov    [0m[35m-[0m[35m0x58[0m([34m%rbp[0m),[34m%rdx[0m
    40a0:	48 8d 35 0e a2 00 00 	[33mlea    [0m[35m0xa20e[0m([34m%rip[0m),[34m%rsi[0m        # e2b5 <_IO_stdin_used+0x2b5>
    40a7:	48 89 c7             	[33mmov    [0m[34m%rax[0m,[34m%rdi[0m
    40aa:	b8 00 00 00 00       	[33mmov    [0m[35m$[0m[35m0x0[0m,[34m%eax[0m
    40af:	e8 0c f7 ff ff       	[33mcall   [0m[35m37c0[0m <[32mfprintf@plt[0m>
    40b4:	48 8b 05 65 e4 00 00 	[33mmov    [0m[35m0xe465[0m([34m%rip[0m),[34m%rax[0m        # 12520 <stderr@GLIBC_2.2.5>
    40bb:	48 89 c6             	[33mmov    [0m[34m%rax[0m,[34m%rsi[0m
    40be:	bf 0a 00 00 00       	[33mmov    [0m[35m$[0m[35m0xa[0m,[34m%edi[0m
    40c3:	e8 78 f4 ff ff       	[33mcall   [0m[35m3540[0m <[32mfputc@plt[0m>
    40c8:	eb 79                	[33mjmp    [0m[35m4143[0m <[32mmain[0m[35m+0x[0m[35m7ce[0m>
    40ca:	c6 85 37 ff ff ff 00 	[33mmovb   [0m[35m$[0m[35m0x0[0m,[35m-[0m[35m0xc9[0m([34m%rbp[0m)
    40d1:	eb 70                	[33mjmp    [0m[35m4143[0m <[32mmain[0m[35m+0x[0m[35m7ce[0m>
    40d3:	48 8b 05 46 e4 00 00 	[33mmov    [0m[35m0xe446[0m([34m%rip[0m),[34m%rax[0m        # 12520 <stderr@GLIBC_2.2.5>
    40da:	48 8b 55 a8          	[33mmov    [0m[35m-[0m[35m0x58[0m([34m%rbp[0m),[34m%rdx[0m
    40de:	48 8d 0d eb a1 00 00 	[33mlea    [0m[35m0xa1eb[0m([34m%rip[0m),[34m%rcx[0m        # e2d0 <_IO_stdin_used+0x2d0>
    40e5:	48 89 ce             	[33mmov    [0m[34m%rcx[0m,[34m%rsi[0m
    40e8:	48 89 c7             	[33mmov    [0m[34m%rax[0m,[34m%rdi[0m
    40eb:	b8 00 00 00 00       	[33mmov    [0m[35m$[0m[35m0x0[0m,[34m%eax[0m
    40f0:	e8 cb f6 ff ff       	[33mcall   [0m[35m37c0[0m <[32mfprintf@plt[0m>
    40f5:	48 8b 05 24 e4 00 00 	[33mmov    [0m[35m0xe424[0m([34m%rip[0m),[34m%rax[0m        # 12520 <stderr@GLIBC_2.2.5>
    40fc:	48 89 c6             	[33mmov    [0m[34m%rax[0m,[34m%rsi[0m
    40ff:	bf 0a 00 00 00       	[33mmov    [0m[35m$[0m[35m0xa[0m,[34m%edi[0m
    4104:	e8 37 f4 ff ff       	[33mcall   [0m[35m3540[0m <[32mfputc@plt[0m>
    4109:	eb 38                	[33mjmp    [0m[35m4143[0m <[32mmain[0m[35m+0x[0m[35m7ce[0m>
    410b:	48 8d 05 fe a1 00 00 	[33mlea    [0m[35m0xa1fe[0m([34m%rip[0m),[34m%rax[0m        # e310 <_IO_stdin_used+0x310>
    4112:	48 89 c1             	[33mmov    [0m[34m%rax[0m,[34m%rcx[0m
    4115:	ba e3 00 00 00       	[33mmov    [0m[35m$[0m[35m0xe3[0m,[34m%edx[0m
    411a:	48 8d 05 01 a2 00 00 	[33mlea    [0m[35m0xa201[0m([34m%rip[0m),[34m%rax[0m        # e322 <_IO_stdin_used+0x322>
    4121:	48 89 c6             	[33mmov    [0m[34m%rax[0m,[34m%rsi[0m
    4124:	48 8d 05 02 a2 00 00 	[33mlea    [0m[35m0xa202[0m([34m%rip[0m),[34m%rax[0m        # e32d <_IO_stdin_used+0x32d>
    412b:	48 89 c7             	[33mmov    [0m[34m%rax[0m,[34m%rdi[0m
    412e:	b8 00 00 00 00       	[33mmov    [0m[35m$[0m[35m0x0[0m,[34m%eax[0m
    4133:	e8 08 f3 ff ff       	[33mcall   [0m[35m3440[0m <[32mprintf@plt[0m>
    4138:	bf 01 00 00 00       	[33mmov    [0m[35m$[0m[35m0x1[0m,[34m%edi[0m
    413d:	e8 5e f3 ff ff       	[33mcall   [0m[35m34a0[0m <[32mexit@plt[0m>
    4142:	90                   	[33mnop[0m
    4143:	e9 8b 05 00 00       	[33mjmp    [0m[35m46d3[0m <[32mmain[0m[35m+0x[0m[35md5e[0m>
    4148:	8b 45 d4             	[33mmov    [0m[35m-[0m[35m0x2c[0m([34m%rbp[0m),[34m%eax[0m
    414b:	3d 52 00 00 40       	[33mcmp    [0m[35m$[0m[35m0x40000052[0m,[34m%eax[0m
    4150:	0f 8f 11 06 00 00    	[33mjg     [0m[35m4767[0m <[32mmain[0m[35m+0x[0m[35mdf2[0m>
    4156:	3d 3b 00 00 40       	[33mcmp    [0m[35m$[0m[35m0x4000003b[0m,[34m%eax[0m
    415b:	7d 49                	[33mjge    [0m[35m41a6[0m <[32mmain[0m[35m+0x[0m[35m831[0m>
    415d:	83 f8 7f             	[33mcmp    [0m[35m$[0m[35m0x7f[0m,[34m%eax[0m
    4160:	0f 8f 01 06 00 00    	[33mjg     [0m[35m4767[0m <[32mmain[0m[35m+0x[0m[35mdf2[0m>
    4166:	83 f8 61             	[33mcmp    [0m[35m$[0m[35m0x61[0m,[34m%eax[0m
    4169:	7d 6c                	[33mjge    [0m[35m41d7[0m <[32mmain[0m[35m+0x[0m[35m862[0m>
    416b:	83 f8 1b             	[33mcmp    [0m[35m$[0m[35m0x1b[0m,[34m%eax[0m
    416e:	0f 84 d2 02 00 00    	[33mje     [0m[35m4446[0m <[32mmain[0m[35m+0x[0m[35mad1[0m>
    4174:	83 f8 1b             	[33mcmp    [0m[35m$[0m[35m0x1b[0m,[34m%eax[0m
    4177:	0f 8f ea 05 00 00    	[33mjg     [0m[35m4767[0m <[32mmain[0m[35m+0x[0m[35mdf2[0m>
    417d:	83 f8 0d             	[33mcmp    [0m[35m$[0m[35m0xd[0m,[34m%eax[0m
    4180:	0f 84 36 02 00 00    	[33mje     [0m[35m43bc[0m <[32mmain[0m[35m+0x[0m[35ma47[0m>
    4186:	83 f8 0d             	[33mcmp    [0m[35m$[0m[35m0xd[0m,[34m%eax[0m
    4189:	0f 8f d8 05 00 00    	[33mjg     [0m[35m4767[0m <[32mmain[0m[35m+0x[0m[35mdf2[0m>
    418f:	83 f8 08             	[33mcmp    [0m[35m$[0m[35m0x8[0m,[34m%eax[0m
    4192:	0f 84 34 01 00 00    	[33mje     [0m[35m42cc[0m <[32mmain[0m[35m+0x[0m[35m957[0m>
    4198:	83 f8 09             	[33mcmp    [0m[35m$[0m[35m0x9[0m,[34m%eax[0m
    419b:	0f 84 15 03 00 00    	[33mje     [0m[35m44b6[0m <[32mmain[0m[35m+0x[0m[35mb41[0m>
    41a1:	e9 c1 05 00 00       	[33mjmp    [0m[35m4767[0m <[32mmain[0m[35m+0x[0m[35mdf2[0m>
    41a6:	2d 3b 00 00 40       	[33msub    [0m[35m$[0m[35m0x4000003b[0m,[34m%eax[0m
    41ab:	83 f8 17             	[33mcmp    [0m[35m$[0m[35m0x17[0m,[34m%eax[0m
    41ae:	0f 87 b3 05 00 00    	[33mja     [0m[35m4767[0m <[32mmain[0m[35m+0x[0m[35mdf2[0m>
    41b4:	89 c0                	[33mmov    [0m[34m%eax[0m,[34m%eax[0m
    41b6:	48 8d 14 85 00 00 00 	[33mlea    [0m[35m0x0[0m(,[34m%rax[0m,[35m4[0m),[34m%rdx[0m
    41bd:	00 
    41be:	48 8d 05 c7 a1 00 00 	[33mlea    [0m[35m0xa1c7[0m([34m%rip[0m),[34m%rax[0m        # e38c <_IO_stdin_used+0x38c>
    41c5:	8b 04 02             	[33mmov    [0m([34m%rdx[0m,[34m%rax[0m,[35m1[0m),[34m%eax[0m
    41c8:	48 98                	[33mcltq[0m
    41ca:	48 8d 15 bb a1 00 00 	[33mlea    [0m[35m0xa1bb[0m([34m%rip[0m),[34m%rdx[0m        # e38c <_IO_stdin_used+0x38c>
    41d1:	48 01 d0             	[33madd    [0m[34m%rdx[0m,[34m%rax[0m
    41d4:	3e ff e0             	[33mnotrack [0m[33mjmp [0m*[34m%rax[0m
    41d7:	83 e8 61             	[33msub    [0m[35m$[0m[35m0x61[0m,[34m%eax[0m
    41da:	83 f8 1e             	[33mcmp    [0m[35m$[0m[35m0x1e[0m,[34m%eax[0m
    41dd:	0f 87 84 05 00 00    	[33mja     [0m[35m4767[0m <[32mmain[0m[35m+0x[0m[35mdf2[0m>
    41e3:	89 c0                	[33mmov    [0m[34m%eax[0m,[34m%eax[0m
    41e5:	48 8d 14 85 00 00 00 	[33mlea    [0m[35m0x0[0m(,[34m%rax[0m,[35m4[0m),[34m%rdx[0m
    41ec:	00 
    41ed:	48 8d 05 f8 a1 00 00 	[33mlea    [0m[35m0xa1f8[0m([34m%rip[0m),[34m%rax[0m        # e3ec <_IO_stdin_used+0x3ec>
    41f4:	8b 04 02             	[33mmov    [0m([34m%rdx[0m,[34m%rax[0m,[35m1[0m),[34m%eax[0m
    41f7:	48 98                	[33mcltq[0m
    41f9:	48 8d 15 ec a1 00 00 	[33mlea    [0m[35m0xa1ec[0m([34m%rip[0m),[34m%rdx[0m        # e3ec <_IO_stdin_used+0x3ec>
    4200:	48 01 d0             	[33madd    [0m[34m%rdx[0m,[34m%rax[0m
    4203:	3e ff e0             	[33mnotrack [0m[33mjmp [0m*[34m%rax[0m
    4206:	0f b7 45 d8          	[33mmovzwl [0m[35m-[0m[35m0x28[0m([34m%rbp[0m),[34m%eax[0m
    420a:	0f b7 c0             	[33mmovzwl [0m[34m%ax[0m,[34m%eax[0m
    420d:	83 e0 03             	[33mand    [0m[35m$[0m[35m0x3[0m,[34m%eax[0m
    4210:	85 c0                	[33mtest   [0m[34m%eax[0m,[34m%eax[0m
    4212:	0f 95 c0             	[33msetne  [0m[34m%al[0m
    4215:	0f b6 c0             	[33mmovzbl [0m[34m%al[0m,[34m%eax[0m
    4218:	89 c6                	[33mmov    [0m[34m%eax[0m,[34m%esi[0m
    421a:	48 8d 05 bf 71 aa 03 	[33mlea    [0m[35m0x3aa71bf[0m([34m%rip[0m),[34m%rax[0m        # 3aab3e0 <editor>
    4221:	48 89 c7             	[33mmov    [0m[34m%rax[0m,[34m%rdi[0m
    4224:	e8 33 2e 00 00       	[33mcall   [0m[35m705c[0m <[32meditor_update_selection[0m>
    4229:	0f b7 45 d8          	[33mmovzwl [0m[35m-[0m[35m0x28[0m([34m%rbp[0m),[34m%eax[0m
    422d:	0f b7 c0             	[33mmovzwl [0m[34m%ax[0m,[34m%eax[0m
    4230:	25 c0 00 00 00       	[33mand    [0m[35m$[0m[35m0xc0[0m,[34m%eax[0m
    4235:	85 c0                	[33mtest   [0m[34m%eax[0m,[34m%eax[0m
    4237:	74 11                	[33mje     [0m[35m424a[0m <[32mmain[0m[35m+0x[0m[35m8d5[0m>
    4239:	48 8d 05 a0 71 aa 03 	[33mlea    [0m[35m0x3aa71a0[0m([34m%rip[0m),[34m%rax[0m        # 3aab3e0 <editor>
    4240:	48 89 c7             	[33mmov    [0m[34m%rax[0m,[34m%rdi[0m
    4243:	e8 99 33 00 00       	[33mcall   [0m[35m75e1[0m <[32meditor_move_to_begin[0m>
    4248:	eb 0f                	[33mjmp    [0m[35m4259[0m <[32mmain[0m[35m+0x[0m[35m8e4[0m>
    424a:	48 8d 05 8f 71 aa 03 	[33mlea    [0m[35m0x3aa718f[0m([34m%rip[0m),[34m%rax[0m        # 3aab3e0 <editor>
    4251:	48 89 c7             	[33mmov    [0m[34m%rax[0m,[34m%rdi[0m
    4254:	e8 e8 33 00 00       	[33mcall   [0m[35m7641[0m <[32meditor_move_to_line_begin[0m>
    4259:	e8 82 f2 ff ff       	[33mcall   [0m[35m34e0[0m <[32mSDL_GetTicks@plt[0m>
    425e:	89 05 1c 72 aa 03    	[33mmov    [0m[34m%eax[0m,[35m0x3aa721c[0m([34m%rip[0m)        # 3aab480 <editor+0xa0>
    4264:	e9 83 04 00 00       	[33mjmp    [0m[35m46ec[0m <[32mmain[0m[35m+0x[0m[35md77[0m>
    4269:	0f b7 45 d8          	[33mmovzwl [0m[35m-[0m[35m0x28[0m([34m%rbp[0m),[34m%eax[0m
    426d:	0f b7 c0             	[33mmovzwl [0m[34m%ax[0m,[34m%eax[0m
    4270:	83 e0 03             	[33mand    [0m[35m$[0m[35m0x3[0m,[34m%eax[0m
    4273:	85 c0                	[33mtest   [0m[34m%eax[0m,[34m%eax[0m
    4275:	0f 95 c0             	[33msetne  [0m[34m%al[0m
    4278:	0f b6 c0             	[33mmovzbl [0m[34m%al[0m,[34m%eax[0m
    427b:	89 c6                	[33mmov    [0m[34m%eax[0m,[34m%esi[0m
    427d:	48 8d 05 5c 71 aa 03 	[33mlea    [0m[35m0x3aa715c[0m([34m%rip[0m),[34m%rax[0m        # 3aab3e0 <editor>
    4284:	48 89 c7             	[33mmov    [0m[34m%rax[0m,[34m%rdi[0m
    4287:	e8 d0 2d 00 00       	[33mcall   [0m[35m705c[0m <[32meditor_update_selection[0m>
    428c:	0f b7 45 d8          	[33mmovzwl [0m[35m-[0m[35m0x28[0m([34m%rbp[0m),[34m%eax[0m
    4290:	0f b7 c0             	[33mmovzwl [0m[34m%ax[0m,[34m%eax[0m
    4293:	25 c0 00 00 00       	[33mand    [0m[35m$[0m[35m0xc0[0m,[34m%eax[0m
    4298:	85 c0                	[33mtest   [0m[34m%eax[0m,[34m%eax[0m
    429a:	74 11                	[33mje     [0m[35m42ad[0m <[32mmain[0m[35m+0x[0m[35m938[0m>
    429c:	48 8d 05 3d 71 aa 03 	[33mlea    [0m[35m0x3aa713d[0m([34m%rip[0m),[34m%rax[0m        # 3aab3e0 <editor>
    42a3:	48 89 c7             	[33mmov    [0m[34m%rax[0m,[34m%rdi[0m
    42a6:	e8 64 33 00 00       	[33mcall   [0m[35m760f[0m <[32meditor_move_to_end[0m>
    42ab:	eb 0f                	[33mjmp    [0m[35m42bc[0m <[32mmain[0m[35m+0x[0m[35m947[0m>
    42ad:	48 8d 05 2c 71 aa 03 	[33mlea    [0m[35m0x3aa712c[0m([34m%rip[0m),[34m%rax[0m        # 3aab3e0 <editor>
    42b4:	48 89 c7             	[33mmov    [0m[34m%rax[0m,[34m%rdi[0m
    42b7:	e8 d5 33 00 00       	[33mcall   [0m[35m7691[0m <[32meditor_move_to_line_end[0m>
    42bc:	e8 1f f2 ff ff       	[33mcall   [0m[35m34e0[0m <[32mSDL_GetTicks@plt[0m>
    42c1:	89 05 b9 71 aa 03    	[33mmov    [0m[34m%eax[0m,[35m0x3aa71b9[0m([34m%rip[0m)        # 3aab480 <editor+0xa0>
    42c7:	e9 20 04 00 00       	[33mjmp    [0m[35m46ec[0m <[32mmain[0m[35m+0x[0m[35md77[0m>
    42cc:	48 8d 05 0d 71 aa 03 	[33mlea    [0m[35m0x3aa710d[0m([34m%rip[0m),[34m%rax[0m        # 3aab3e0 <editor>
    42d3:	48 89 c7             	[33mmov    [0m[34m%rax[0m,[34m%rdi[0m
    42d6:	e8 4b 0d 00 00       	[33mcall   [0m[35m5026[0m <[32meditor_backspace[0m>
    42db:	e8 00 f2 ff ff       	[33mcall   [0m[35m34e0[0m <[32mSDL_GetTicks@plt[0m>
    42e0:	89 05 9a 71 aa 03    	[33mmov    [0m[34m%eax[0m,[35m0x3aa719a[0m([34m%rip[0m)        # 3aab480 <editor+0xa0>
    42e6:	e9 01 04 00 00       	[33mjmp    [0m[35m46ec[0m <[32mmain[0m[35m+0x[0m[35md77[0m>
    42eb:	48 8b 05 46 71 aa 03 	[33mmov    [0m[35m0x3aa7146[0m([34m%rip[0m),[34m%rax[0m        # 3aab438 <editor+0x58>
    42f2:	48 85 c0             	[33mtest   [0m[34m%rax[0m,[34m%rax[0m
    42f5:	74 69                	[33mje     [0m[35m4360[0m <[32mmain[0m[35m+0x[0m[35m9eb[0m>
    42f7:	48 8d 05 e2 70 aa 03 	[33mlea    [0m[35m0x3aa70e2[0m([34m%rip[0m),[34m%rax[0m        # 3aab3e0 <editor>
    42fe:	48 89 c7             	[33mmov    [0m[34m%rax[0m,[34m%rdi[0m
    4301:	e8 70 11 00 00       	[33mcall   [0m[35m5476[0m <[32meditor_save[0m>
    4306:	89 85 44 ff ff ff    	[33mmov    [0m[34m%eax[0m,[35m-[0m[35m0xbc[0m([34m%rbp[0m)
    430c:	83 bd 44 ff ff ff 00 	[33mcmpl   [0m[35m$[0m[35m0x0[0m,[35m-[0m[35m0xbc[0m([34m%rbp[0m)
    4313:	0f 84 c0 03 00 00    	[33mje     [0m[35m46d9[0m <[32mmain[0m[35m+0x[0m[35md64[0m>
    4319:	8b 85 44 ff ff ff    	[33mmov    [0m[35m-[0m[35m0xbc[0m([34m%rbp[0m),[34m%eax[0m
    431f:	89 c7                	[33mmov    [0m[34m%eax[0m,[34m%edi[0m
    4321:	e8 fa f2 ff ff       	[33mcall   [0m[35m3620[0m <[32mstrerror@plt[0m>
    4326:	48 89 c2             	[33mmov    [0m[34m%rax[0m,[34m%rdx[0m
    4329:	48 8b 05 f0 e1 00 00 	[33mmov    [0m[35m0xe1f0[0m([34m%rip[0m),[34m%rax[0m        # 12520 <stderr@GLIBC_2.2.5>
    4330:	48 8d 0d 11 a0 00 00 	[33mlea    [0m[35m0xa011[0m([34m%rip[0m),[34m%rcx[0m        # e348 <_IO_stdin_used+0x348>
    4337:	48 89 ce             	[33mmov    [0m[34m%rcx[0m,[34m%rsi[0m
    433a:	48 89 c7             	[33mmov    [0m[34m%rax[0m,[34m%rdi[0m
    433d:	b8 00 00 00 00       	[33mmov    [0m[35m$[0m[35m0x0[0m,[34m%eax[0m
    4342:	e8 79 f4 ff ff       	[33mcall   [0m[35m37c0[0m <[32mfprintf@plt[0m>
    4347:	48 8b 05 d2 e1 00 00 	[33mmov    [0m[35m0xe1d2[0m([34m%rip[0m),[34m%rax[0m        # 12520 <stderr@GLIBC_2.2.5>
    434e:	48 89 c6             	[33mmov    [0m[34m%rax[0m,[34m%rsi[0m
    4351:	bf 0a 00 00 00       	[33mmov    [0m[35m$[0m[35m0xa[0m,[34m%edi[0m
    4356:	e8 e5 f1 ff ff       	[33mcall   [0m[35m3540[0m <[32mfputc@plt[0m>
    435b:	e9 79 03 00 00       	[33mjmp    [0m[35m46d9[0m <[32mmain[0m[35m+0x[0m[35md64[0m>
    4360:	48 8b 05 b9 e1 00 00 	[33mmov    [0m[35m0xe1b9[0m([34m%rip[0m),[34m%rax[0m        # 12520 <stderr@GLIBC_2.2.5>
    4367:	48 89 c1             	[33mmov    [0m[34m%rax[0m,[34m%rcx[0m
    436a:	ba 18 00 00 00       	[33mmov    [0m[35m$[0m[35m0x18[0m,[34m%edx[0m
    436f:	be 01 00 00 00       	[33mmov    [0m[35m$[0m[35m0x1[0m,[34m%esi[0m
    4374:	48 8d 05 f6 9f 00 00 	[33mlea    [0m[35m0x9ff6[0m([34m%rip[0m),[34m%rax[0m        # e371 <_IO_stdin_used+0x371>
    437b:	48 89 c7             	[33mmov    [0m[34m%rax[0m,[34m%rdi[0m
    437e:	e8 0d f4 ff ff       	[33mcall   [0m[35m3790[0m <[32mfwrite@plt[0m>
    4383:	48 8b 05 96 e1 00 00 	[33mmov    [0m[35m0xe196[0m([34m%rip[0m),[34m%rax[0m        # 12520 <stderr@GLIBC_2.2.5>
    438a:	48 89 c6             	[33mmov    [0m[34m%rax[0m,[34m%rsi[0m
    438d:	bf 0a 00 00 00       	[33mmov    [0m[35m$[0m[35m0xa[0m,[34m%edi[0m
    4392:	e8 a9 f1 ff ff       	[33mcall   [0m[35m3540[0m <[32mfputc@plt[0m>
    4397:	e9 3d 03 00 00       	[33mjmp    [0m[35m46d9[0m <[32mmain[0m[35m+0x[0m[35md64[0m>
    439c:	c6 85 37 ff ff ff 01 	[33mmovb   [0m[35m$[0m[35m0x1[0m,[35m-[0m[35m0xc9[0m([34m%rbp[0m)
    43a3:	e9 44 03 00 00       	[33mjmp    [0m[35m46ec[0m <[32mmain[0m[35m+0x[0m[35md77[0m>
    43a8:	48 8d 05 d1 ef 00 00 	[33mlea    [0m[35m0xefd1[0m([34m%rip[0m),[34m%rax[0m        # 13380 <sr>
    43af:	48 89 c7             	[33mmov    [0m[34m%rax[0m,[34m%rdi[0m
    43b2:	e8 8d 64 00 00       	[33mcall   [0m[35ma844[0m <[32msimple_renderer_reload_shaders[0m>
    43b7:	e9 30 03 00 00       	[33mjmp    [0m[35m46ec[0m <[32mmain[0m[35m+0x[0m[35md77[0m>
    43bc:	0f b6 05 85 70 aa 03 	[33mmovzbl [0m[35m0x3aa7085[0m([34m%rip[0m),[34m%eax[0m        # 3aab448 <editor+0x68>
    43c3:	84 c0                	[33mtest   [0m[34m%al[0m,[34m%al[0m
    43c5:	74 14                	[33mje     [0m[35m43db[0m <[32mmain[0m[35m+0x[0m[35ma66[0m>
    43c7:	48 8d 05 12 70 aa 03 	[33mlea    [0m[35m0x3aa7012[0m([34m%rip[0m),[34m%rax[0m        # 3aab3e0 <editor>
    43ce:	48 89 c7             	[33mmov    [0m[34m%rax[0m,[34m%rdi[0m
    43d1:	e8 67 31 00 00       	[33mcall   [0m[35m753d[0m <[32meditor_stop_search[0m>
    43d6:	e9 11 03 00 00       	[33mjmp    [0m[35m46ec[0m <[32mmain[0m[35m+0x[0m[35md77[0m>
    43db:	be 0a 00 00 00       	[33mmov    [0m[35m$[0m[35m0xa[0m,[34m%esi[0m
    43e0:	48 8d 05 f9 6f aa 03 	[33mlea    [0m[35m0x3aa6ff9[0m([34m%rip[0m),[34m%rax[0m        # 3aab3e0 <editor>
    43e7:	48 89 c7             	[33mmov    [0m[34m%rax[0m,[34m%rdi[0m
    43ea:	e8 76 18 00 00       	[33mcall   [0m[35m5c65[0m <[32meditor_insert_char[0m>
    43ef:	e8 ec f0 ff ff       	[33mcall   [0m[35m34e0[0m <[32mSDL_GetTicks@plt[0m>
    43f4:	89 05 86 70 aa 03    	[33mmov    [0m[34m%eax[0m,[35m0x3aa7086[0m([34m%rip[0m)        # 3aab480 <editor+0xa0>
    43fa:	e9 ed 02 00 00       	[33mjmp    [0m[35m46ec[0m <[32mmain[0m[35m+0x[0m[35md77[0m>
    43ff:	48 8d 05 da 6f aa 03 	[33mlea    [0m[35m0x3aa6fda[0m([34m%rip[0m),[34m%rax[0m        # 3aab3e0 <editor>
    4406:	48 89 c7             	[33mmov    [0m[34m%rax[0m,[34m%rdi[0m
    4409:	e8 2d 0d 00 00       	[33mcall   [0m[35m513b[0m <[32meditor_delete[0m>
    440e:	e8 cd f0 ff ff       	[33mcall   [0m[35m34e0[0m <[32mSDL_GetTicks@plt[0m>
    4413:	89 05 67 70 aa 03    	[33mmov    [0m[34m%eax[0m,[35m0x3aa7067[0m([34m%rip[0m)        # 3aab480 <editor+0xa0>
    4419:	e9 ce 02 00 00       	[33mjmp    [0m[35m46ec[0m <[32mmain[0m[35m+0x[0m[35md77[0m>
    441e:	0f b7 45 d8          	[33mmovzwl [0m[35m-[0m[35m0x28[0m([34m%rbp[0m),[34m%eax[0m
    4422:	0f b7 c0             	[33mmovzwl [0m[34m%ax[0m,[34m%eax[0m
    4425:	25 c0 00 00 00       	[33mand    [0m[35m$[0m[35m0xc0[0m,[34m%eax[0m
    442a:	85 c0                	[33mtest   [0m[34m%eax[0m,[34m%eax[0m
    442c:	0f 84 ad 02 00 00    	[33mje     [0m[35m46df[0m <[32mmain[0m[35m+0x[0m[35md6a[0m>
    4432:	48 8d 05 a7 6f aa 03 	[33mlea    [0m[35m0x3aa6fa7[0m([34m%rip[0m),[34m%rax[0m        # 3aab3e0 <editor>
    4439:	48 89 c7             	[33mmov    [0m[34m%rax[0m,[34m%rdi[0m
    443c:	e8 5a 30 00 00       	[33mcall   [0m[35m749b[0m <[32meditor_start_search[0m>
    4441:	e9 99 02 00 00       	[33mjmp    [0m[35m46df[0m <[32mmain[0m[35m+0x[0m[35md6a[0m>
    4446:	48 8d 05 93 6f aa 03 	[33mlea    [0m[35m0x3aa6f93[0m([34m%rip[0m),[34m%rax[0m        # 3aab3e0 <editor>
    444d:	48 89 c7             	[33mmov    [0m[34m%rax[0m,[34m%rdi[0m
    4450:	e8 e8 30 00 00       	[33mcall   [0m[35m753d[0m <[32meditor_stop_search[0m>
    4455:	0f b7 45 d8          	[33mmovzwl [0m[35m-[0m[35m0x28[0m([34m%rbp[0m),[34m%eax[0m
    4459:	0f b7 c0             	[33mmovzwl [0m[34m%ax[0m,[34m%eax[0m
    445c:	83 e0 03             	[33mand    [0m[35m$[0m[35m0x3[0m,[34m%eax[0m
    445f:	85 c0                	[33mtest   [0m[34m%eax[0m,[34m%eax[0m
    4461:	0f 95 c0             	[33msetne  [0m[34m%al[0m
    4464:	0f b6 c0             	[33mmovzbl [0m[34m%al[0m,[34m%eax[0m
    4467:	89 c6                	[33mmov    [0m[34m%eax[0m,[34m%esi[0m
    4469:	48 8d 05 70 6f aa 03 	[33mlea    [0m[35m0x3aa6f70[0m([34m%rip[0m),[34m%rax[0m        # 3aab3e0 <editor>
    4470:	48 89 c7             	[33mmov    [0m[34m%rax[0m,[34m%rdi[0m
    4473:	e8 e4 2b 00 00       	[33mcall   [0m[35m705c[0m <[32meditor_update_selection[0m>
    4478:	e9 6f 02 00 00       	[33mjmp    [0m[35m46ec[0m <[32mmain[0m[35m+0x[0m[35md77[0m>
    447d:	0f b7 45 d8          	[33mmovzwl [0m[35m-[0m[35m0x28[0m([34m%rbp[0m),[34m%eax[0m
    4481:	0f b7 c0             	[33mmovzwl [0m[34m%ax[0m,[34m%eax[0m
    4484:	25 c0 00 00 00       	[33mand    [0m[35m$[0m[35m0xc0[0m,[34m%eax[0m
    4489:	85 c0                	[33mtest   [0m[34m%eax[0m,[34m%eax[0m
    448b:	0f 84 54 02 00 00    	[33mje     [0m[35m46e5[0m <[32mmain[0m[35m+0x[0m[35md70[0m>
    4491:	c6 05 d0 6f aa 03 01 	[33mmovb   [0m[35m$[0m[35m0x1[0m,[35m0x3aa6fd0[0m([34m%rip[0m)        # 3aab468 <editor+0x88>
    4498:	48 c7 05 cd 6f aa 03 	[33mmovq   [0m[35m$[0m[35m0x0[0m,[35m0x3aa6fcd[0m([34m%rip[0m)        # 3aab470 <editor+0x90>
    449f:	00 00 00 00 
    44a3:	48 8b 05 46 6f aa 03 	[33mmov    [0m[35m0x3aa6f46[0m([34m%rip[0m),[34m%rax[0m        # 3aab3f0 <editor+0x10>
    44aa:	48 89 05 c7 6f aa 03 	[33mmov    [0m[34m%rax[0m,[35m0x3aa6fc7[0m([34m%rip[0m)        # 3aab478 <editor+0x98>
    44b1:	e9 2f 02 00 00       	[33mjmp    [0m[35m46e5[0m <[32mmain[0m[35m+0x[0m[35md70[0m>
    44b6:	48 c7 85 68 ff ff ff 	[33mmovq   [0m[35m$[0m[35m0x0[0m,[35m-[0m[35m0x98[0m([34m%rbp[0m)
    44bd:	00 00 00 00 
    44c1:	eb 1c                	[33mjmp    [0m[35m44df[0m <[32mmain[0m[35m+0x[0m[35mb6a[0m>
    44c3:	be 20 00 00 00       	[33mmov    [0m[35m$[0m[35m0x20[0m,[34m%esi[0m
    44c8:	48 8d 05 11 6f aa 03 	[33mlea    [0m[35m0x3aa6f11[0m([34m%rip[0m),[34m%rax[0m        # 3aab3e0 <editor>
    44cf:	48 89 c7             	[33mmov    [0m[34m%rax[0m,[34m%rdi[0m
    44d2:	e8 8e 17 00 00       	[33mcall   [0m[35m5c65[0m <[32meditor_insert_char[0m>
    44d7:	48 83 85 68 ff ff ff 	[33maddq   [0m[35m$[0m[35m0x1[0m,[35m-[0m[35m0x98[0m([34m%rbp[0m)
    44de:	01 
    44df:	48 83 bd 68 ff ff ff 	[33mcmpq   [0m[35m$[0m[35m0x3[0m,[35m-[0m[35m0x98[0m([34m%rbp[0m)
    44e6:	03 
    44e7:	76 da                	[33mjbe    [0m[35m44c3[0m <[32mmain[0m[35m+0x[0m[35mb4e[0m>
    44e9:	e9 fe 01 00 00       	[33mjmp    [0m[35m46ec[0m <[32mmain[0m[35m+0x[0m[35md77[0m>
    44ee:	0f b7 45 d8          	[33mmovzwl [0m[35m-[0m[35m0x28[0m([34m%rbp[0m),[34m%eax[0m
    44f2:	0f b7 c0             	[33mmovzwl [0m[34m%ax[0m,[34m%eax[0m
    44f5:	25 c0 00 00 00       	[33mand    [0m[35m$[0m[35m0xc0[0m,[34m%eax[0m
    44fa:	85 c0                	[33mtest   [0m[34m%eax[0m,[34m%eax[0m
    44fc:	0f 84 e6 01 00 00    	[33mje     [0m[35m46e8[0m <[32mmain[0m[35m+0x[0m[35md73[0m>
    4502:	48 8d 05 d7 6e aa 03 	[33mlea    [0m[35m0x3aa6ed7[0m([34m%rip[0m),[34m%rax[0m        # 3aab3e0 <editor>
    4509:	48 89 c7             	[33mmov    [0m[34m%rax[0m,[34m%rdi[0m
    450c:	e8 c2 2b 00 00       	[33mcall   [0m[35m70d3[0m <[32meditor_clipboard_copy[0m>
    4511:	e9 d2 01 00 00       	[33mjmp    [0m[35m46e8[0m <[32mmain[0m[35m+0x[0m[35md73[0m>
    4516:	0f b7 45 d8          	[33mmovzwl [0m[35m-[0m[35m0x28[0m([34m%rbp[0m),[34m%eax[0m
    451a:	0f b7 c0             	[33mmovzwl [0m[34m%ax[0m,[34m%eax[0m
    451d:	25 c0 00 00 00       	[33mand    [0m[35m$[0m[35m0xc0[0m,[34m%eax[0m
    4522:	85 c0                	[33mtest   [0m[34m%eax[0m,[34m%eax[0m
    4524:	0f 84 c1 01 00 00    	[33mje     [0m[35m46eb[0m <[32mmain[0m[35m+0x[0m[35md76[0m>
    452a:	48 8d 05 af 6e aa 03 	[33mlea    [0m[35m0x3aa6eaf[0m([34m%rip[0m),[34m%rax[0m        # 3aab3e0 <editor>
    4531:	48 89 c7             	[33mmov    [0m[34m%rax[0m,[34m%rdi[0m
    4534:	e8 e4 2e 00 00       	[33mcall   [0m[35m741d[0m <[32meditor_clipboard_paste[0m>
    4539:	e9 ad 01 00 00       	[33mjmp    [0m[35m46eb[0m <[32mmain[0m[35m+0x[0m[35md76[0m>
    453e:	0f b7 45 d8          	[33mmovzwl [0m[35m-[0m[35m0x28[0m([34m%rbp[0m),[34m%eax[0m
    4542:	0f b7 c0             	[33mmovzwl [0m[34m%ax[0m,[34m%eax[0m
    4545:	83 e0 03             	[33mand    [0m[35m$[0m[35m0x3[0m,[34m%eax[0m
    4548:	85 c0                	[33mtest   [0m[34m%eax[0m,[34m%eax[0m
    454a:	0f 95 c0             	[33msetne  [0m[34m%al[0m
    454d:	0f b6 c0             	[33mmovzbl [0m[34m%al[0m,[34m%eax[0m
    4550:	89 c6                	[33mmov    [0m[34m%eax[0m,[34m%esi[0m
    4552:	48 8d 05 87 6e aa 03 	[33mlea    [0m[35m0x3aa6e87[0m([34m%rip[0m),[34m%rax[0m        # 3aab3e0 <editor>
    4559:	48 89 c7             	[33mmov    [0m[34m%rax[0m,[34m%rdi[0m
    455c:	e8 fb 2a 00 00       	[33mcall   [0m[35m705c[0m <[32meditor_update_selection[0m>
    4561:	0f b7 45 d8          	[33mmovzwl [0m[35m-[0m[35m0x28[0m([34m%rbp[0m),[34m%eax[0m
    4565:	0f b7 c0             	[33mmovzwl [0m[34m%ax[0m,[34m%eax[0m
    4568:	25 c0 00 00 00       	[33mand    [0m[35m$[0m[35m0xc0[0m,[34m%eax[0m
    456d:	85 c0                	[33mtest   [0m[34m%eax[0m,[34m%eax[0m
    456f:	74 11                	[33mje     [0m[35m4582[0m <[32mmain[0m[35m+0x[0m[35mc0d[0m>
    4571:	48 8d 05 68 6e aa 03 	[33mlea    [0m[35m0x3aa6e68[0m([34m%rip[0m),[34m%rax[0m        # 3aab3e0 <editor>
    4578:	48 89 c7             	[33mmov    [0m[34m%rax[0m,[34m%rdi[0m
    457b:	e8 62 31 00 00       	[33mcall   [0m[35m76e2[0m <[32meditor_move_paragraph_up[0m>
    4580:	eb 0f                	[33mjmp    [0m[35m4591[0m <[32mmain[0m[35m+0x[0m[35mc1c[0m>
    4582:	48 8d 05 57 6e aa 03 	[33mlea    [0m[35m0x3aa6e57[0m([34m%rip[0m),[34m%rax[0m        # 3aab3e0 <editor>
    4589:	48 89 c7             	[33mmov    [0m[34m%rax[0m,[34m%rdi[0m
    458c:	e8 d3 12 00 00       	[33mcall   [0m[35m5864[0m <[32meditor_move_line_up[0m>
    4591:	e8 4a ef ff ff       	[33mcall   [0m[35m34e0[0m <[32mSDL_GetTicks@plt[0m>
    4596:	89 05 e4 6e aa 03    	[33mmov    [0m[34m%eax[0m,[35m0x3aa6ee4[0m([34m%rip[0m)        # 3aab480 <editor+0xa0>
    459c:	e9 4b 01 00 00       	[33mjmp    [0m[35m46ec[0m <[32mmain[0m[35m+0x[0m[35md77[0m>
    45a1:	0f b7 45 d8          	[33mmovzwl [0m[35m-[0m[35m0x28[0m([34m%rbp[0m),[34m%eax[0m
    45a5:	0f b7 c0             	[33mmovzwl [0m[34m%ax[0m,[34m%eax[0m
    45a8:	83 e0 03             	[33mand    [0m[35m$[0m[35m0x3[0m,[34m%eax[0m
    45ab:	85 c0                	[33mtest   [0m[34m%eax[0m,[34m%eax[0m
    45ad:	0f 95 c0             	[33msetne  [0m[34m%al[0m
    45b0:	0f b6 c0             	[33mmovzbl [0m[34m%al[0m,[34m%eax[0m
    45b3:	89 c6                	[33mmov    [0m[34m%eax[0m,[34m%esi[0m
    45b5:	48 8d 05 24 6e aa 03 	[33mlea    [0m[35m0x3aa6e24[0m([34m%rip[0m),[34m%rax[0m        # 3aab3e0 <editor>
    45bc:	48 89 c7             	[33mmov    [0m[34m%rax[0m,[34m%rdi[0m
    45bf:	e8 98 2a 00 00       	[33mcall   [0m[35m705c[0m <[32meditor_update_selection[0m>
    45c4:	0f b7 45 d8          	[33mmovzwl [0m[35m-[0m[35m0x28[0m([34m%rbp[0m),[34m%eax[0m
    45c8:	0f b7 c0             	[33mmovzwl [0m[34m%ax[0m,[34m%eax[0m
    45cb:	25 c0 00 00 00       	[33mand    [0m[35m$[0m[35m0xc0[0m,[34m%eax[0m
    45d0:	85 c0                	[33mtest   [0m[34m%eax[0m,[34m%eax[0m
    45d2:	74 11                	[33mje     [0m[35m45e5[0m <[32mmain[0m[35m+0x[0m[35mc70[0m>
    45d4:	48 8d 05 05 6e aa 03 	[33mlea    [0m[35m0x3aa6e05[0m([34m%rip[0m),[34m%rax[0m        # 3aab3e0 <editor>
    45db:	48 89 c7             	[33mmov    [0m[34m%rax[0m,[34m%rdi[0m
    45de:	e8 d7 31 00 00       	[33mcall   [0m[35m77ba[0m <[32meditor_move_paragraph_down[0m>
    45e3:	eb 0f                	[33mjmp    [0m[35m45f4[0m <[32mmain[0m[35m+0x[0m[35mc7f[0m>
    45e5:	48 8d 05 f4 6d aa 03 	[33mlea    [0m[35m0x3aa6df4[0m([34m%rip[0m),[34m%rax[0m        # 3aab3e0 <editor>
    45ec:	48 89 c7             	[33mmov    [0m[34m%rax[0m,[34m%rdi[0m
    45ef:	e8 2b 13 00 00       	[33mcall   [0m[35m591f[0m <[32meditor_move_line_down[0m>
    45f4:	e8 e7 ee ff ff       	[33mcall   [0m[35m34e0[0m <[32mSDL_GetTicks@plt[0m>
    45f9:	89 05 81 6e aa 03    	[33mmov    [0m[34m%eax[0m,[35m0x3aa6e81[0m([34m%rip[0m)        # 3aab480 <editor+0xa0>
    45ff:	e9 e8 00 00 00       	[33mjmp    [0m[35m46ec[0m <[32mmain[0m[35m+0x[0m[35md77[0m>
    4604:	0f b7 45 d8          	[33mmovzwl [0m[35m-[0m[35m0x28[0m([34m%rbp[0m),[34m%eax[0m
    4608:	0f b7 c0             	[33mmovzwl [0m[34m%ax[0m,[34m%eax[0m
    460b:	83 e0 03             	[33mand    [0m[35m$[0m[35m0x3[0m,[34m%eax[0m
    460e:	85 c0                	[33mtest   [0m[34m%eax[0m,[34m%eax[0m
    4610:	0f 95 c0             	[33msetne  [0m[34m%al[0m
    4613:	0f b6 c0             	[33mmovzbl [0m[34m%al[0m,[34m%eax[0m
    4616:	89 c6                	[33mmov    [0m[34m%eax[0m,[34m%esi[0m
    4618:	48 8d 05 c1 6d aa 03 	[33mlea    [0m[35m0x3aa6dc1[0m([34m%rip[0m),[34m%rax[0m        # 3aab3e0 <editor>
    461f:	48 89 c7             	[33mmov    [0m[34m%rax[0m,[34m%rdi[0m
    4622:	e8 35 2a 00 00       	[33mcall   [0m[35m705c[0m <[32meditor_update_selection[0m>
    4627:	0f b7 45 d8          	[33mmovzwl [0m[35m-[0m[35m0x28[0m([34m%rbp[0m),[34m%eax[0m
    462b:	0f b7 c0             	[33mmovzwl [0m[34m%ax[0m,[34m%eax[0m
    462e:	25 c0 00 00 00       	[33mand    [0m[35m$[0m[35m0xc0[0m,[34m%eax[0m
    4633:	85 c0                	[33mtest   [0m[34m%eax[0m,[34m%eax[0m
    4635:	74 11                	[33mje     [0m[35m4648[0m <[32mmain[0m[35m+0x[0m[35mcd3[0m>
    4637:	48 8d 05 a2 6d aa 03 	[33mlea    [0m[35m0x3aa6da2[0m([34m%rip[0m),[34m%rax[0m        # 3aab3e0 <editor>
    463e:	48 89 c7             	[33mmov    [0m[34m%rax[0m,[34m%rdi[0m
    4641:	e8 39 14 00 00       	[33mcall   [0m[35m5a7f[0m <[32meditor_move_word_left[0m>
    4646:	eb 0f                	[33mjmp    [0m[35m4657[0m <[32mmain[0m[35m+0x[0m[35mce2[0m>
    4648:	48 8d 05 91 6d aa 03 	[33mlea    [0m[35m0x3aa6d91[0m([34m%rip[0m),[34m%rax[0m        # 3aab3e0 <editor>
    464f:	48 89 c7             	[33mmov    [0m[34m%rax[0m,[34m%rdi[0m
    4652:	e8 8e 13 00 00       	[33mcall   [0m[35m59e5[0m <[32meditor_move_char_left[0m>
    4657:	e8 84 ee ff ff       	[33mcall   [0m[35m34e0[0m <[32mSDL_GetTicks@plt[0m>
    465c:	89 05 1e 6e aa 03    	[33mmov    [0m[34m%eax[0m,[35m0x3aa6e1e[0m([34m%rip[0m)        # 3aab480 <editor+0xa0>
    4662:	e9 85 00 00 00       	[33mjmp    [0m[35m46ec[0m <[32mmain[0m[35m+0x[0m[35md77[0m>
    4667:	0f b7 45 d8          	[33mmovzwl [0m[35m-[0m[35m0x28[0m([34m%rbp[0m),[34m%eax[0m
    466b:	0f b7 c0             	[33mmovzwl [0m[34m%ax[0m,[34m%eax[0m
    466e:	83 e0 03             	[33mand    [0m[35m$[0m[35m0x3[0m,[34m%eax[0m
    4671:	85 c0                	[33mtest   [0m[34m%eax[0m,[34m%eax[0m
    4673:	0f 95 c0             	[33msetne  [0m[34m%al[0m
    4676:	0f b6 c0             	[33mmovzbl [0m[34m%al[0m,[34m%eax[0m
    4679:	89 c6                	[33mmov    [0m[34m%eax[0m,[34m%esi[0m
    467b:	48 8d 05 5e 6d aa 03 	[33mlea    [0m[35m0x3aa6d5e[0m([34m%rip[0m),[34m%rax[0m        # 3aab3e0 <editor>
    4682:	48 89 c7             	[33mmov    [0m[34m%rax[0m,[34m%rdi[0m
    4685:	e8 d2 29 00 00       	[33mcall   [0m[35m705c[0m <[32meditor_update_selection[0m>
    468a:	0f b7 45 d8          	[33mmovzwl [0m[35m-[0m[35m0x28[0m([34m%rbp[0m),[34m%eax[0m
    468e:	0f b7 c0             	[33mmovzwl [0m[34m%ax[0m,[34m%eax[0m
    4691:	25 c0 00 00 00       	[33mand    [0m[35m$[0m[35m0xc0[0m,[34m%eax[0m
    4696:	85 c0                	[33mtest   [0m[34m%eax[0m,[34m%eax[0m
    4698:	74 11                	[33mje     [0m[35m46ab[0m <[32mmain[0m[35m+0x[0m[35md36[0m>
    469a:	48 8d 05 3f 6d aa 03 	[33mlea    [0m[35m0x3aa6d3f[0m([34m%rip[0m),[34m%rax[0m        # 3aab3e0 <editor>
    46a1:	48 89 c7             	[33mmov    [0m[34m%rax[0m,[34m%rdi[0m
    46a4:	e8 c5 14 00 00       	[33mcall   [0m[35m5b6e[0m <[32meditor_move_word_right[0m>
    46a9:	eb 0f                	[33mjmp    [0m[35m46ba[0m <[32mmain[0m[35m+0x[0m[35md45[0m>
    46ab:	48 8d 05 2e 6d aa 03 	[33mlea    [0m[35m0x3aa6d2e[0m([34m%rip[0m),[34m%rax[0m        # 3aab3e0 <editor>
    46b2:	48 89 c7             	[33mmov    [0m[34m%rax[0m,[34m%rdi[0m
    46b5:	e8 74 13 00 00       	[33mcall   [0m[35m5a2e[0m <[32meditor_move_char_right[0m>
    46ba:	e8 21 ee ff ff       	[33mcall   [0m[35m34e0[0m <[32mSDL_GetTicks@plt[0m>
    46bf:	89 05 bb 6d aa 03    	[33mmov    [0m[34m%eax[0m,[35m0x3aa6dbb[0m([34m%rip[0m)        # 3aab480 <editor+0xa0>
    46c5:	eb 25                	[33mjmp    [0m[35m46ec[0m <[32mmain[0m[35m+0x[0m[35md77[0m>
    46c7:	90                   	[33mnop[0m
    46c8:	e9 9a 00 00 00       	[33mjmp    [0m[35m4767[0m <[32mmain[0m[35m+0x[0m[35mdf2[0m>
    46cd:	90                   	[33mnop[0m
    46ce:	e9 94 00 00 00       	[33mjmp    [0m[35m4767[0m <[32mmain[0m[35m+0x[0m[35mdf2[0m>
    46d3:	90                   	[33mnop[0m
    46d4:	e9 8e 00 00 00       	[33mjmp    [0m[35m4767[0m <[32mmain[0m[35m+0x[0m[35mdf2[0m>
    46d9:	90                   	[33mnop[0m
    46da:	e9 88 00 00 00       	[33mjmp    [0m[35m4767[0m <[32mmain[0m[35m+0x[0m[35mdf2[0m>
    46df:	90                   	[33mnop[0m
    46e0:	e9 82 00 00 00       	[33mjmp    [0m[35m4767[0m <[32mmain[0m[35m+0x[0m[35mdf2[0m>
    46e5:	90                   	[33mnop[0m
    46e6:	eb 7f                	[33mjmp    [0m[35m4767[0m <[32mmain[0m[35m+0x[0m[35mdf2[0m>
    46e8:	90                   	[33mnop[0m
    46e9:	eb 7c                	[33mjmp    [0m[35m4767[0m <[32mmain[0m[35m+0x[0m[35mdf2[0m>
    46eb:	90                   	[33mnop[0m
    46ec:	eb 79                	[33mjmp    [0m[35m4767[0m <[32mmain[0m[35m+0x[0m[35mdf2[0m>
    46ee:	80 bd 37 ff ff ff 00 	[33mcmpb   [0m[35m$[0m[35m0x0[0m,[35m-[0m[35m0xc9[0m([34m%rbp[0m)
    46f5:	75 73                	[33mjne    [0m[35m476a[0m <[32mmain[0m[35m+0x[0m[35mdf5[0m>
    46f7:	48 8d 45 c0          	[33mlea    [0m[35m-[0m[35m0x40[0m([34m%rbp[0m),[34m%rax[0m
    46fb:	48 83 c0 0c          	[33madd    [0m[35m$[0m[35m0xc[0m,[34m%rax[0m
    46ff:	48 89 45 98          	[33mmov    [0m[34m%rax[0m,[35m-[0m[35m0x68[0m([34m%rbp[0m)
    4703:	48 8b 45 98          	[33mmov    [0m[35m-[0m[35m0x68[0m([34m%rbp[0m),[34m%rax[0m
    4707:	48 89 c7             	[33mmov    [0m[34m%rax[0m,[34m%rdi[0m
    470a:	e8 61 ee ff ff       	[33mcall   [0m[35m3570[0m <[32mstrlen@plt[0m>
    470f:	48 89 45 a0          	[33mmov    [0m[34m%rax[0m,[35m-[0m[35m0x60[0m([34m%rbp[0m)
    4713:	48 c7 85 70 ff ff ff 	[33mmovq   [0m[35m$[0m[35m0x0[0m,[35m-[0m[35m0x90[0m([34m%rbp[0m)
    471a:	00 00 00 00 
    471e:	eb 2d                	[33mjmp    [0m[35m474d[0m <[32mmain[0m[35m+0x[0m[35mdd8[0m>
    4720:	48 8b 55 98          	[33mmov    [0m[35m-[0m[35m0x68[0m([34m%rbp[0m),[34m%rdx[0m
    4724:	48 8b 85 70 ff ff ff 	[33mmov    [0m[35m-[0m[35m0x90[0m([34m%rbp[0m),[34m%rax[0m
    472b:	48 01 d0             	[33madd    [0m[34m%rdx[0m,[34m%rax[0m
    472e:	0f b6 00             	[33mmovzbl [0m([34m%rax[0m),[34m%eax[0m
    4731:	0f be c0             	[33mmovsbl [0m[34m%al[0m,[34m%eax[0m
    4734:	89 c6                	[33mmov    [0m[34m%eax[0m,[34m%esi[0m
    4736:	48 8d 05 a3 6c aa 03 	[33mlea    [0m[35m0x3aa6ca3[0m([34m%rip[0m),[34m%rax[0m        # 3aab3e0 <editor>
    473d:	48 89 c7             	[33mmov    [0m[34m%rax[0m,[34m%rdi[0m
    4740:	e8 20 15 00 00       	[33mcall   [0m[35m5c65[0m <[32meditor_insert_char[0m>
    4745:	48 83 85 70 ff ff ff 	[33maddq   [0m[35m$[0m[35m0x1[0m,[35m-[0m[35m0x90[0m([34m%rbp[0m)
    474c:	01 
    474d:	48 8b 85 70 ff ff ff 	[33mmov    [0m[35m-[0m[35m0x90[0m([34m%rbp[0m),[34m%rax[0m
    4754:	48 3b 45 a0          	[33mcmp    [0m[35m-[0m[35m0x60[0m([34m%rbp[0m),[34m%rax[0m
    4758:	72 c6                	[33mjb     [0m[35m4720[0m <[32mmain[0m[35m+0x[0m[35mdab[0m>
    475a:	e8 81 ed ff ff       	[33mcall   [0m[35m34e0[0m <[32mSDL_GetTicks@plt[0m>
    475f:	89 05 1b 6d aa 03    	[33mmov    [0m[34m%eax[0m,[35m0x3aa6d1b[0m([34m%rip[0m)        # 3aab480 <editor+0xa0>
    4765:	eb 03                	[33mjmp    [0m[35m476a[0m <[32mmain[0m[35m+0x[0m[35mdf5[0m>
    4767:	90                   	[33mnop[0m
    4768:	eb 01                	[33mjmp    [0m[35m476b[0m <[32mmain[0m[35m+0x[0m[35mdf6[0m>
    476a:	90                   	[33mnop[0m
    476b:	48 8d 45 c0          	[33mlea    [0m[35m-[0m[35m0x40[0m([34m%rbp[0m),[34m%rax[0m
    476f:	48 89 c7             	[33mmov    [0m[34m%rax[0m,[34m%rdi[0m
    4772:	e8 79 ed ff ff       	[33mcall   [0m[35m34f0[0m <[32mSDL_PollEvent@plt[0m>
    4777:	85 c0                	[33mtest   [0m[34m%eax[0m,[34m%eax[0m
    4779:	0f 85 ec f6 ff ff    	[33mjne    [0m[35m3e6b[0m <[32mmain[0m[35m+0x[0m[35m4f6[0m>
    477f:	48 8d 55 b0          	[33mlea    [0m[35m-[0m[35m0x50[0m([34m%rbp[0m),[34m%rdx[0m
    4783:	48 8d 8d 38 ff ff ff 	[33mlea    [0m[35m-[0m[35m0xc8[0m([34m%rbp[0m),[34m%rcx[0m
    478a:	48 8b 45 90          	[33mmov    [0m[35m-[0m[35m0x70[0m([34m%rbp[0m),[34m%rax[0m
    478e:	48 89 ce             	[33mmov    [0m[34m%rcx[0m,[34m%rsi[0m
    4791:	48 89 c7             	[33mmov    [0m[34m%rax[0m,[34m%rdi[0m
    4794:	e8 67 ed ff ff       	[33mcall   [0m[35m3500[0m <[32mSDL_GetWindowSize@plt[0m>
    4799:	8b 55 b0             	[33mmov    [0m[35m-[0m[35m0x50[0m([34m%rbp[0m),[34m%edx[0m
    479c:	8b 85 38 ff ff ff    	[33mmov    [0m[35m-[0m[35m0xc8[0m([34m%rbp[0m),[34m%eax[0m
    47a2:	89 d1                	[33mmov    [0m[34m%edx[0m,[34m%ecx[0m
    47a4:	89 c2                	[33mmov    [0m[34m%eax[0m,[34m%edx[0m
    47a6:	be 00 00 00 00       	[33mmov    [0m[35m$[0m[35m0x0[0m,[34m%esi[0m
    47ab:	bf 00 00 00 00       	[33mmov    [0m[35m$[0m[35m0x0[0m,[34m%edi[0m
    47b0:	e8 cb ef ff ff       	[33mcall   [0m[35m3780[0m <[32mglViewport@plt[0m>
    47b5:	bf ff 18 18 18       	[33mmov    [0m[35m$[0m[35m0x181818ff[0m,[34m%edi[0m
    47ba:	e8 e0 7c 00 00       	[33mcall   [0m[35mc49f[0m <[32mhex_to_vec4f[0m>
    47bf:	66 48 0f 7e c0       	[33mmovq   [0m[34m%xmm0[0m,[34m%rax[0m
    47c4:	66 0f 6f c1          	[33mmovdqa [0m[34m%xmm1[0m,[34m%xmm0[0m
    47c8:	48 89 45 b0          	[33mmov    [0m[34m%rax[0m,[35m-[0m[35m0x50[0m([34m%rbp[0m)
    47cc:	66 0f d6 45 b8       	[33mmovq   [0m[34m%xmm0[0m,[35m-[0m[35m0x48[0m([34m%rbp[0m)
    47d1:	f3 0f 10 55 bc       	[33mmovss  [0m[35m-[0m[35m0x44[0m([34m%rbp[0m),[34m%xmm2[0m
    47d6:	f3 0f 10 4d b8       	[33mmovss  [0m[35m-[0m[35m0x48[0m([34m%rbp[0m),[34m%xmm1[0m
    47db:	f3 0f 10 45 b4       	[33mmovss  [0m[35m-[0m[35m0x4c[0m([34m%rbp[0m),[34m%xmm0[0m
    47e0:	8b 45 b0             	[33mmov    [0m[35m-[0m[35m0x50[0m([34m%rbp[0m),[34m%eax[0m
    47e3:	0f 28 da             	[33mmovaps [0m[34m%xmm2[0m,[34m%xmm3[0m
    47e6:	0f 28 d1             	[33mmovaps [0m[34m%xmm1[0m,[34m%xmm2[0m
    47e9:	0f 28 c8             	[33mmovaps [0m[34m%xmm0[0m,[34m%xmm1[0m
    47ec:	66 0f 6e c0          	[33mmovd   [0m[34m%eax[0m,[34m%xmm0[0m
    47f0:	e8 1b ed ff ff       	[33mcall   [0m[35m3510[0m <[32mglClearColor@plt[0m>
    47f5:	bf 00 40 00 00       	[33mmov    [0m[35m$[0m[35m0x4000[0m,[34m%edi[0m
    47fa:	e8 91 ec ff ff       	[33mcall   [0m[35m3490[0m <[32mglClear@plt[0m>
    47ff:	80 bd 37 ff ff ff 00 	[33mcmpb   [0m[35m$[0m[35m0x0[0m,[35m-[0m[35m0xc9[0m([34m%rbp[0m)
    4806:	74 29                	[33mje     [0m[35m4831[0m <[32mmain[0m[35m+0x[0m[35mebc[0m>
    4808:	48 8b 45 90          	[33mmov    [0m[35m-[0m[35m0x70[0m([34m%rbp[0m),[34m%rax[0m
    480c:	48 8d 15 6d eb 00 00 	[33mlea    [0m[35m0xeb6d[0m([34m%rip[0m),[34m%rdx[0m        # 13380 <sr>
    4813:	48 89 d1             	[33mmov    [0m[34m%rdx[0m,[34m%rcx[0m
    4816:	48 8d 15 43 dd 00 00 	[33mlea    [0m[35m0xdd43[0m([34m%rip[0m),[34m%rdx[0m        # 12560 <atlas>
    481d:	48 89 c6             	[33mmov    [0m[34m%rax[0m,[34m%rsi[0m
    4820:	48 8d 05 79 6c aa 03 	[33mlea    [0m[35m0x3aa6c79[0m([34m%rip[0m),[34m%rax[0m        # 3aab4a0 <fb>
    4827:	48 89 c7             	[33mmov    [0m[34m%rax[0m,[34m%rdi[0m
    482a:	e8 c8 43 00 00       	[33mcall   [0m[35m8bf7[0m <[32mfb_render[0m>
    482f:	eb 24                	[33mjmp    [0m[35m4855[0m <[32mmain[0m[35m+0x[0m[35mee0[0m>
    4831:	48 8b 45 90          	[33mmov    [0m[35m-[0m[35m0x70[0m([34m%rbp[0m),[34m%rax[0m
    4835:	48 8d 15 a4 6b aa 03 	[33mlea    [0m[35m0x3aa6ba4[0m([34m%rip[0m),[34m%rdx[0m        # 3aab3e0 <editor>
    483c:	48 89 d1             	[33mmov    [0m[34m%rdx[0m,[34m%rcx[0m
    483f:	48 8d 15 3a eb 00 00 	[33mlea    [0m[35m0xeb3a[0m([34m%rip[0m),[34m%rdx[0m        # 13380 <sr>
    4846:	48 8d 35 13 dd 00 00 	[33mlea    [0m[35m0xdd13[0m([34m%rip[0m),[34m%rsi[0m        # 12560 <atlas>
    484d:	48 89 c7             	[33mmov    [0m[34m%rax[0m,[34m%rdi[0m
    4850:	e8 da 1c 00 00       	[33mcall   [0m[35m652f[0m <[32meditor_render[0m>
    4855:	48 8b 45 90          	[33mmov    [0m[35m-[0m[35m0x70[0m([34m%rbp[0m),[34m%rax[0m
    4859:	48 89 c7             	[33mmov    [0m[34m%rax[0m,[34m%rdi[0m
    485c:	e8 bf ec ff ff       	[33mcall   [0m[35m3520[0m <[32mSDL_GL_SwapWindow@plt[0m>
    4861:	e8 7a ec ff ff       	[33mcall   [0m[35m34e0[0m <[32mSDL_GetTicks@plt[0m>
    4866:	2b 85 4c ff ff ff    	[33msub    [0m[35m-[0m[35m0xb4[0m([34m%rbp[0m),[34m%eax[0m
    486c:	89 85 50 ff ff ff    	[33mmov    [0m[34m%eax[0m,[35m-[0m[35m0xb0[0m([34m%rbp[0m)
    4872:	c7 85 54 ff ff ff 10 	[33mmovl   [0m[35m$[0m[35m0x10[0m,[35m-[0m[35m0xac[0m([34m%rbp[0m)
    4879:	00 00 00 
    487c:	8b 85 50 ff ff ff    	[33mmov    [0m[35m-[0m[35m0xb0[0m([34m%rbp[0m),[34m%eax[0m
    4882:	3b 85 54 ff ff ff    	[33mcmp    [0m[35m-[0m[35m0xac[0m([34m%rbp[0m),[34m%eax[0m
    4888:	73 13                	[33mjae    [0m[35m489d[0m <[32mmain[0m[35m+0x[0m[35mf28[0m>
    488a:	8b 85 54 ff ff ff    	[33mmov    [0m[35m-[0m[35m0xac[0m([34m%rbp[0m),[34m%eax[0m
    4890:	2b 85 50 ff ff ff    	[33msub    [0m[35m-[0m[35m0xb0[0m([34m%rbp[0m),[34m%eax[0m
    4896:	89 c7                	[33mmov    [0m[34m%eax[0m,[34m%edi[0m
    4898:	e8 c3 ee ff ff       	[33mcall   [0m[35m3760[0m <[32mSDL_Delay@plt[0m>
    489d:	0f b6 85 36 ff ff ff 	[33mmovzbl [0m[35m-[0m[35m0xca[0m([34m%rbp[0m),[34m%eax[0m
    48a4:	83 f0 01             	[33mxor    [0m[35m$[0m[35m0x1[0m,[34m%eax[0m
    48a7:	84 c0                	[33mtest   [0m[34m%al[0m,[34m%al[0m
    48a9:	0f 85 97 f5 ff ff    	[33mjne    [0m[35m3e46[0m <[32mmain[0m[35m+0x[0m[35m4d1[0m>
    48af:	b8 00 00 00 00       	[33mmov    [0m[35m$[0m[35m0x0[0m,[34m%eax[0m
    48b4:	48 8b 55 f8          	[33mmov    [0m[35m-[0m[35m0x8[0m([34m%rbp[0m),[34m%rdx[0m
    48b8:	64 48 2b 14 25 28 00 	[33msub    [0m[34m%fs[0m:[35m0x28[0m,[34m%rdx[0m
    48bf:	00 00 
    48c1:	74 05                	[33mje     [0m[35m48c8[0m <[32mmain[0m[35m+0x[0m[35mf53[0m>
    48c3:	e8 18 ee ff ff       	[33mcall   [0m[35m36e0[0m <[32m__stack_chk_fail@plt[0m>
    48c8:	c9                   	[33mleave[0m
    48c9:	c3                   	[33mret[0m

00000000000048ca <vec2f>:
    48ca:	f3 0f 1e fa          	[33mendbr64[0m
    48ce:	55                   	[33mpush   [0m[34m%rbp[0m
    48cf:	48 89 e5             	[33mmov    [0m[34m%rsp[0m,[34m%rbp[0m
    48d2:	f3 0f 11 45 fc       	[33mmovss  [0m[34m%xmm0[0m,[35m-[0m[35m0x4[0m([34m%rbp[0m)
    48d7:	f3 0f 11 4d f8       	[33mmovss  [0m[34m%xmm1[0m,[35m-[0m[35m0x8[0m([34m%rbp[0m)
    48dc:	8b 55 fc             	[33mmov    [0m[35m-[0m[35m0x4[0m([34m%rbp[0m),[34m%edx[0m
    48df:	89 d2                	[33mmov    [0m[34m%edx[0m,[34m%edx[0m
    48e1:	48 b9 00 00 00 00 ff 	[33mmovabs [0m[35m$[0m[35m0xffffffff00000000[0m,[34m%rcx[0m
    48e8:	ff ff ff 
    48eb:	48 21 c8             	[33mand    [0m[34m%rcx[0m,[34m%rax[0m
    48ee:	48 09 d0             	[33mor     [0m[34m%rdx[0m,[34m%rax[0m
    48f1:	8b 55 f8             	[33mmov    [0m[35m-[0m[35m0x8[0m([34m%rbp[0m),[34m%edx[0m
    48f4:	89 d2                	[33mmov    [0m[34m%edx[0m,[34m%edx[0m
    48f6:	48 c1 e2 20          	[33mshl    [0m[35m$[0m[35m0x20[0m,[34m%rdx[0m
    48fa:	89 c0                	[33mmov    [0m[34m%eax[0m,[34m%eax[0m
    48fc:	48 09 d0             	[33mor     [0m[34m%rdx[0m,[34m%rax[0m
    48ff:	66 48 0f 6e c0       	[33mmovq   [0m[34m%rax[0m,[34m%xmm0[0m
    4904:	5d                   	[33mpop    [0m[34m%rbp[0m
    4905:	c3                   	[33mret[0m

0000000000004906 <vec2fs>:
    4906:	f3 0f 1e fa          	[33mendbr64[0m
    490a:	55                   	[33mpush   [0m[34m%rbp[0m
    490b:	48 89 e5             	[33mmov    [0m[34m%rsp[0m,[34m%rbp[0m
    490e:	48 83 ec 08          	[33msub    [0m[35m$[0m[35m0x8[0m,[34m%rsp[0m
    4912:	f3 0f 11 45 fc       	[33mmovss  [0m[34m%xmm0[0m,[35m-[0m[35m0x4[0m([34m%rbp[0m)
    4917:	f3 0f 10 45 fc       	[33mmovss  [0m[35m-[0m[35m0x4[0m([34m%rbp[0m),[34m%xmm0[0m
    491c:	8b 45 fc             	[33mmov    [0m[35m-[0m[35m0x4[0m([34m%rbp[0m),[34m%eax[0m
    491f:	0f 28 c8             	[33mmovaps [0m[34m%xmm0[0m,[34m%xmm1[0m
    4922:	66 0f 6e c0          	[33mmovd   [0m[34m%eax[0m,[34m%xmm0[0m
    4926:	e8 9f ff ff ff       	[33mcall   [0m[35m48ca[0m <[32mvec2f[0m>
    492b:	66 48 0f 7e c0       	[33mmovq   [0m[34m%xmm0[0m,[34m%rax[0m
    4930:	66 48 0f 6e c0       	[33mmovq   [0m[34m%rax[0m,[34m%xmm0[0m
    4935:	c9                   	[33mleave[0m
    4936:	c3                   	[33mret[0m

0000000000004937 <vec2f_add>:
    4937:	f3 0f 1e fa          	[33mendbr64[0m
    493b:	55                   	[33mpush   [0m[34m%rbp[0m
    493c:	48 89 e5             	[33mmov    [0m[34m%rsp[0m,[34m%rbp[0m
    493f:	48 83 ec 10          	[33msub    [0m[35m$[0m[35m0x10[0m,[34m%rsp[0m
    4943:	66 0f d6 45 f8       	[33mmovq   [0m[34m%xmm0[0m,[35m-[0m[35m0x8[0m([34m%rbp[0m)
    4948:	66 0f d6 4d f0       	[33mmovq   [0m[34m%xmm1[0m,[35m-[0m[35m0x10[0m([34m%rbp[0m)
    494d:	f3 0f 10 4d fc       	[33mmovss  [0m[35m-[0m[35m0x4[0m([34m%rbp[0m),[34m%xmm1[0m
    4952:	f3 0f 10 45 f4       	[33mmovss  [0m[35m-[0m[35m0xc[0m([34m%rbp[0m),[34m%xmm0[0m
    4957:	0f 28 d1             	[33mmovaps [0m[34m%xmm1[0m,[34m%xmm2[0m
    495a:	f3 0f 58 d0          	[33maddss  [0m[34m%xmm0[0m,[34m%xmm2[0m
    495e:	f3 0f 10 4d f8       	[33mmovss  [0m[35m-[0m[35m0x8[0m([34m%rbp[0m),[34m%xmm1[0m
    4963:	f3 0f 10 45 f0       	[33mmovss  [0m[35m-[0m[35m0x10[0m([34m%rbp[0m),[34m%xmm0[0m
    4968:	f3 0f 58 c8          	[33maddss  [0m[34m%xmm0[0m,[34m%xmm1[0m
    496c:	66 0f 7e c8          	[33mmovd   [0m[34m%xmm1[0m,[34m%eax[0m
    4970:	0f 28 ca             	[33mmovaps [0m[34m%xmm2[0m,[34m%xmm1[0m
    4973:	66 0f 6e c0          	[33mmovd   [0m[34m%eax[0m,[34m%xmm0[0m
    4977:	e8 4e ff ff ff       	[33mcall   [0m[35m48ca[0m <[32mvec2f[0m>
    497c:	66 48 0f 7e c0       	[33mmovq   [0m[34m%xmm0[0m,[34m%rax[0m
    4981:	66 48 0f 6e c0       	[33mmovq   [0m[34m%rax[0m,[34m%xmm0[0m
    4986:	c9                   	[33mleave[0m
    4987:	c3                   	[33mret[0m

0000000000004988 <vec2f_sub>:
    4988:	f3 0f 1e fa          	[33mendbr64[0m
    498c:	55                   	[33mpush   [0m[34m%rbp[0m
    498d:	48 89 e5             	[33mmov    [0m[34m%rsp[0m,[34m%rbp[0m
    4990:	48 83 ec 10          	[33msub    [0m[35m$[0m[35m0x10[0m,[34m%rsp[0m
    4994:	66 0f d6 45 f8       	[33mmovq   [0m[34m%xmm0[0m,[35m-[0m[35m0x8[0m([34m%rbp[0m)
    4999:	66 0f d6 4d f0       	[33mmovq   [0m[34m%xmm1[0m,[35m-[0m[35m0x10[0m([34m%rbp[0m)
    499e:	f3 0f 10 45 fc       	[33mmovss  [0m[35m-[0m[35m0x4[0m([34m%rbp[0m),[34m%xmm0[0m
    49a3:	f3 0f 10 4d f4       	[33mmovss  [0m[35m-[0m[35m0xc[0m([34m%rbp[0m),[34m%xmm1[0m
    49a8:	0f 28 d0             	[33mmovaps [0m[34m%xmm0[0m,[34m%xmm2[0m
    49ab:	f3 0f 5c d1          	[33msubss  [0m[34m%xmm1[0m,[34m%xmm2[0m
    49af:	f3 0f 10 45 f8       	[33mmovss  [0m[35m-[0m[35m0x8[0m([34m%rbp[0m),[34m%xmm0[0m
    49b4:	f3 0f 10 4d f0       	[33mmovss  [0m[35m-[0m[35m0x10[0m([34m%rbp[0m),[34m%xmm1[0m
    49b9:	f3 0f 5c c1          	[33msubss  [0m[34m%xmm1[0m,[34m%xmm0[0m
    49bd:	66 0f 7e c0          	[33mmovd   [0m[34m%xmm0[0m,[34m%eax[0m
    49c1:	0f 28 ca             	[33mmovaps [0m[34m%xmm2[0m,[34m%xmm1[0m
    49c4:	66 0f 6e c0          	[33mmovd   [0m[34m%eax[0m,[34m%xmm0[0m
    49c8:	e8 fd fe ff ff       	[33mcall   [0m[35m48ca[0m <[32mvec2f[0m>
    49cd:	66 48 0f 7e c0       	[33mmovq   [0m[34m%xmm0[0m,[34m%rax[0m
    49d2:	66 48 0f 6e c0       	[33mmovq   [0m[34m%rax[0m,[34m%xmm0[0m
    49d7:	c9                   	[33mleave[0m
    49d8:	c3                   	[33mret[0m

00000000000049d9 <vec2f_mul>:
    49d9:	f3 0f 1e fa          	[33mendbr64[0m
    49dd:	55                   	[33mpush   [0m[34m%rbp[0m
    49de:	48 89 e5             	[33mmov    [0m[34m%rsp[0m,[34m%rbp[0m
    49e1:	48 83 ec 10          	[33msub    [0m[35m$[0m[35m0x10[0m,[34m%rsp[0m
    49e5:	66 0f d6 45 f8       	[33mmovq   [0m[34m%xmm0[0m,[35m-[0m[35m0x8[0m([34m%rbp[0m)
    49ea:	66 0f d6 4d f0       	[33mmovq   [0m[34m%xmm1[0m,[35m-[0m[35m0x10[0m([34m%rbp[0m)
    49ef:	f3 0f 10 4d fc       	[33mmovss  [0m[35m-[0m[35m0x4[0m([34m%rbp[0m),[34m%xmm1[0m
    49f4:	f3 0f 10 45 f4       	[33mmovss  [0m[35m-[0m[35m0xc[0m([34m%rbp[0m),[34m%xmm0[0m
    49f9:	0f 28 d1             	[33mmovaps [0m[34m%xmm1[0m,[34m%xmm2[0m
    49fc:	f3 0f 59 d0          	[33mmulss  [0m[34m%xmm0[0m,[34m%xmm2[0m
    4a00:	f3 0f 10 4d f8       	[33mmovss  [0m[35m-[0m[35m0x8[0m([34m%rbp[0m),[34m%xmm1[0m
    4a05:	f3 0f 10 45 f0       	[33mmovss  [0m[35m-[0m[35m0x10[0m([34m%rbp[0m),[34m%xmm0[0m
    4a0a:	f3 0f 59 c8          	[33mmulss  [0m[34m%xmm0[0m,[34m%xmm1[0m
    4a0e:	66 0f 7e c8          	[33mmovd   [0m[34m%xmm1[0m,[34m%eax[0m
    4a12:	0f 28 ca             	[33mmovaps [0m[34m%xmm2[0m,[34m%xmm1[0m
    4a15:	66 0f 6e c0          	[33mmovd   [0m[34m%eax[0m,[34m%xmm0[0m
    4a19:	e8 ac fe ff ff       	[33mcall   [0m[35m48ca[0m <[32mvec2f[0m>
    4a1e:	66 48 0f 7e c0       	[33mmovq   [0m[34m%xmm0[0m,[34m%rax[0m
    4a23:	66 48 0f 6e c0       	[33mmovq   [0m[34m%rax[0m,[34m%xmm0[0m
    4a28:	c9                   	[33mleave[0m
    4a29:	c3                   	[33mret[0m

0000000000004a2a <vec2f_mul3>:
    4a2a:	f3 0f 1e fa          	[33mendbr64[0m
    4a2e:	55                   	[33mpush   [0m[34m%rbp[0m
    4a2f:	48 89 e5             	[33mmov    [0m[34m%rsp[0m,[34m%rbp[0m
    4a32:	48 83 ec 18          	[33msub    [0m[35m$[0m[35m0x18[0m,[34m%rsp[0m
    4a36:	66 0f d6 45 f8       	[33mmovq   [0m[34m%xmm0[0m,[35m-[0m[35m0x8[0m([34m%rbp[0m)
    4a3b:	66 0f d6 4d f0       	[33mmovq   [0m[34m%xmm1[0m,[35m-[0m[35m0x10[0m([34m%rbp[0m)
    4a40:	66 0f d6 55 e8       	[33mmovq   [0m[34m%xmm2[0m,[35m-[0m[35m0x18[0m([34m%rbp[0m)
    4a45:	f3 0f 7e 45 f0       	[33mmovq   [0m[35m-[0m[35m0x10[0m([34m%rbp[0m),[34m%xmm0[0m
    4a4a:	48 8b 45 f8          	[33mmov    [0m[35m-[0m[35m0x8[0m([34m%rbp[0m),[34m%rax[0m
    4a4e:	66 0f 6f c8          	[33mmovdqa [0m[34m%xmm0[0m,[34m%xmm1[0m
    4a52:	66 48 0f 6e c0       	[33mmovq   [0m[34m%rax[0m,[34m%xmm0[0m
    4a57:	e8 7d ff ff ff       	[33mcall   [0m[35m49d9[0m <[32mvec2f_mul[0m>
    4a5c:	66 48 0f 7e c0       	[33mmovq   [0m[34m%xmm0[0m,[34m%rax[0m
    4a61:	f3 0f 7e 45 e8       	[33mmovq   [0m[35m-[0m[35m0x18[0m([34m%rbp[0m),[34m%xmm0[0m
    4a66:	66 0f 6f c8          	[33mmovdqa [0m[34m%xmm0[0m,[34m%xmm1[0m
    4a6a:	66 48 0f 6e c0       	[33mmovq   [0m[34m%rax[0m,[34m%xmm0[0m
    4a6f:	e8 65 ff ff ff       	[33mcall   [0m[35m49d9[0m <[32mvec2f_mul[0m>
    4a74:	66 48 0f 7e c0       	[33mmovq   [0m[34m%xmm0[0m,[34m%rax[0m
    4a79:	66 48 0f 6e c0       	[33mmovq   [0m[34m%rax[0m,[34m%xmm0[0m
    4a7e:	c9                   	[33mleave[0m
    4a7f:	c3                   	[33mret[0m

0000000000004a80 <vec2f_div>:
    4a80:	f3 0f 1e fa          	[33mendbr64[0m
    4a84:	55                   	[33mpush   [0m[34m%rbp[0m
    4a85:	48 89 e5             	[33mmov    [0m[34m%rsp[0m,[34m%rbp[0m
    4a88:	48 83 ec 10          	[33msub    [0m[35m$[0m[35m0x10[0m,[34m%rsp[0m
    4a8c:	66 0f d6 45 f8       	[33mmovq   [0m[34m%xmm0[0m,[35m-[0m[35m0x8[0m([34m%rbp[0m)
    4a91:	66 0f d6 4d f0       	[33mmovq   [0m[34m%xmm1[0m,[35m-[0m[35m0x10[0m([34m%rbp[0m)
    4a96:	f3 0f 10 45 fc       	[33mmovss  [0m[35m-[0m[35m0x4[0m([34m%rbp[0m),[34m%xmm0[0m
    4a9b:	f3 0f 10 4d f4       	[33mmovss  [0m[35m-[0m[35m0xc[0m([34m%rbp[0m),[34m%xmm1[0m
    4aa0:	0f 28 d0             	[33mmovaps [0m[34m%xmm0[0m,[34m%xmm2[0m
    4aa3:	f3 0f 5e d1          	[33mdivss  [0m[34m%xmm1[0m,[34m%xmm2[0m
    4aa7:	f3 0f 10 45 f8       	[33mmovss  [0m[35m-[0m[35m0x8[0m([34m%rbp[0m),[34m%xmm0[0m
    4aac:	f3 0f 10 4d f0       	[33mmovss  [0m[35m-[0m[35m0x10[0m([34m%rbp[0m),[34m%xmm1[0m
    4ab1:	f3 0f 5e c1          	[33mdivss  [0m[34m%xmm1[0m,[34m%xmm0[0m
    4ab5:	66 0f 7e c0          	[33mmovd   [0m[34m%xmm0[0m,[34m%eax[0m
    4ab9:	0f 28 ca             	[33mmovaps [0m[34m%xmm2[0m,[34m%xmm1[0m
    4abc:	66 0f 6e c0          	[33mmovd   [0m[34m%eax[0m,[34m%xmm0[0m
    4ac0:	e8 05 fe ff ff       	[33mcall   [0m[35m48ca[0m <[32mvec2f[0m>
    4ac5:	66 48 0f 7e c0       	[33mmovq   [0m[34m%xmm0[0m,[34m%rax[0m
    4aca:	66 48 0f 6e c0       	[33mmovq   [0m[34m%rax[0m,[34m%xmm0[0m
    4acf:	c9                   	[33mleave[0m
    4ad0:	c3                   	[33mret[0m

0000000000004ad1 <vec2i>:
    4ad1:	f3 0f 1e fa          	[33mendbr64[0m
    4ad5:	55                   	[33mpush   [0m[34m%rbp[0m
    4ad6:	48 89 e5             	[33mmov    [0m[34m%rsp[0m,[34m%rbp[0m
    4ad9:	89 7d fc             	[33mmov    [0m[34m%edi[0m,[35m-[0m[35m0x4[0m([34m%rbp[0m)
    4adc:	89 75 f8             	[33mmov    [0m[34m%esi[0m,[35m-[0m[35m0x8[0m([34m%rbp[0m)
    4adf:	8b 45 fc             	[33mmov    [0m[35m-[0m[35m0x4[0m([34m%rbp[0m),[34m%eax[0m
    4ae2:	48 b9 00 00 00 00 ff 	[33mmovabs [0m[35m$[0m[35m0xffffffff00000000[0m,[34m%rcx[0m
    4ae9:	ff ff ff 
    4aec:	48 21 ca             	[33mand    [0m[34m%rcx[0m,[34m%rdx[0m
    4aef:	48 09 d0             	[33mor     [0m[34m%rdx[0m,[34m%rax[0m
    4af2:	48 89 c2             	[33mmov    [0m[34m%rax[0m,[34m%rdx[0m
    4af5:	8b 45 f8             	[33mmov    [0m[35m-[0m[35m0x8[0m([34m%rbp[0m),[34m%eax[0m
    4af8:	48 c1 e0 20          	[33mshl    [0m[35m$[0m[35m0x20[0m,[34m%rax[0m
    4afc:	89 d2                	[33mmov    [0m[34m%edx[0m,[34m%edx[0m
    4afe:	48 09 d0             	[33mor     [0m[34m%rdx[0m,[34m%rax[0m
    4b01:	48 89 c2             	[33mmov    [0m[34m%rax[0m,[34m%rdx[0m
    4b04:	48 89 d0             	[33mmov    [0m[34m%rdx[0m,[34m%rax[0m
    4b07:	5d                   	[33mpop    [0m[34m%rbp[0m
    4b08:	c3                   	[33mret[0m

0000000000004b09 <vec2is>:
    4b09:	f3 0f 1e fa          	[33mendbr64[0m
    4b0d:	55                   	[33mpush   [0m[34m%rbp[0m
    4b0e:	48 89 e5             	[33mmov    [0m[34m%rsp[0m,[34m%rbp[0m
    4b11:	48 83 ec 08          	[33msub    [0m[35m$[0m[35m0x8[0m,[34m%rsp[0m
    4b15:	89 7d fc             	[33mmov    [0m[34m%edi[0m,[35m-[0m[35m0x4[0m([34m%rbp[0m)
    4b18:	8b 55 fc             	[33mmov    [0m[35m-[0m[35m0x4[0m([34m%rbp[0m),[34m%edx[0m
    4b1b:	8b 45 fc             	[33mmov    [0m[35m-[0m[35m0x4[0m([34m%rbp[0m),[34m%eax[0m
    4b1e:	89 d6                	[33mmov    [0m[34m%edx[0m,[34m%esi[0m
    4b20:	89 c7                	[33mmov    [0m[34m%eax[0m,[34m%edi[0m
    4b22:	e8 aa ff ff ff       	[33mcall   [0m[35m4ad1[0m <[32mvec2i[0m>
    4b27:	c9                   	[33mleave[0m
    4b28:	c3                   	[33mret[0m

0000000000004b29 <vec2i_add>:
    4b29:	f3 0f 1e fa          	[33mendbr64[0m
    4b2d:	55                   	[33mpush   [0m[34m%rbp[0m
    4b2e:	48 89 e5             	[33mmov    [0m[34m%rsp[0m,[34m%rbp[0m
    4b31:	48 83 ec 10          	[33msub    [0m[35m$[0m[35m0x10[0m,[34m%rsp[0m
    4b35:	48 89 7d f8          	[33mmov    [0m[34m%rdi[0m,[35m-[0m[35m0x8[0m([34m%rbp[0m)
    4b39:	48 89 75 f0          	[33mmov    [0m[34m%rsi[0m,[35m-[0m[35m0x10[0m([34m%rbp[0m)
    4b3d:	8b 55 fc             	[33mmov    [0m[35m-[0m[35m0x4[0m([34m%rbp[0m),[34m%edx[0m
    4b40:	8b 45 f4             	[33mmov    [0m[35m-[0m[35m0xc[0m([34m%rbp[0m),[34m%eax[0m
    4b43:	01 c2                	[33madd    [0m[34m%eax[0m,[34m%edx[0m
    4b45:	8b 4d f8             	[33mmov    [0m[35m-[0m[35m0x8[0m([34m%rbp[0m),[34m%ecx[0m
    4b48:	8b 45 f0             	[33mmov    [0m[35m-[0m[35m0x10[0m([34m%rbp[0m),[34m%eax[0m
    4b4b:	01 c8                	[33madd    [0m[34m%ecx[0m,[34m%eax[0m
    4b4d:	89 d6                	[33mmov    [0m[34m%edx[0m,[34m%esi[0m
    4b4f:	89 c7                	[33mmov    [0m[34m%eax[0m,[34m%edi[0m
    4b51:	e8 7b ff ff ff       	[33mcall   [0m[35m4ad1[0m <[32mvec2i[0m>
    4b56:	c9                   	[33mleave[0m
    4b57:	c3                   	[33mret[0m

0000000000004b58 <vec2i_sub>:
    4b58:	f3 0f 1e fa          	[33mendbr64[0m
    4b5c:	55                   	[33mpush   [0m[34m%rbp[0m
    4b5d:	48 89 e5             	[33mmov    [0m[34m%rsp[0m,[34m%rbp[0m
    4b60:	48 83 ec 10          	[33msub    [0m[35m$[0m[35m0x10[0m,[34m%rsp[0m
    4b64:	48 89 7d f8          	[33mmov    [0m[34m%rdi[0m,[35m-[0m[35m0x8[0m([34m%rbp[0m)
    4b68:	48 89 75 f0          	[33mmov    [0m[34m%rsi[0m,[35m-[0m[35m0x10[0m([34m%rbp[0m)
    4b6c:	8b 55 fc             	[33mmov    [0m[35m-[0m[35m0x4[0m([34m%rbp[0m),[34m%edx[0m
    4b6f:	8b 45 f4             	[33mmov    [0m[35m-[0m[35m0xc[0m([34m%rbp[0m),[34m%eax[0m
    4b72:	29 c2                	[33msub    [0m[34m%eax[0m,[34m%edx[0m
    4b74:	8b 45 f8             	[33mmov    [0m[35m-[0m[35m0x8[0m([34m%rbp[0m),[34m%eax[0m
    4b77:	8b 4d f0             	[33mmov    [0m[35m-[0m[35m0x10[0m([34m%rbp[0m),[34m%ecx[0m
    4b7a:	29 c8                	[33msub    [0m[34m%ecx[0m,[34m%eax[0m
    4b7c:	89 d6                	[33mmov    [0m[34m%edx[0m,[34m%esi[0m
    4b7e:	89 c7                	[33mmov    [0m[34m%eax[0m,[34m%edi[0m
    4b80:	e8 4c ff ff ff       	[33mcall   [0m[35m4ad1[0m <[32mvec2i[0m>
    4b85:	c9                   	[33mleave[0m
    4b86:	c3                   	[33mret[0m

0000000000004b87 <vec2i_mul>:
    4b87:	f3 0f 1e fa          	[33mendbr64[0m
    4b8b:	55                   	[33mpush   [0m[34m%rbp[0m
    4b8c:	48 89 e5             	[33mmov    [0m[34m%rsp[0m,[34m%rbp[0m
    4b8f:	48 83 ec 10          	[33msub    [0m[35m$[0m[35m0x10[0m,[34m%rsp[0m
    4b93:	48 89 7d f8          	[33mmov    [0m[34m%rdi[0m,[35m-[0m[35m0x8[0m([34m%rbp[0m)
    4b97:	48 89 75 f0          	[33mmov    [0m[34m%rsi[0m,[35m-[0m[35m0x10[0m([34m%rbp[0m)
    4b9b:	8b 55 fc             	[33mmov    [0m[35m-[0m[35m0x4[0m([34m%rbp[0m),[34m%edx[0m
    4b9e:	8b 45 f4             	[33mmov    [0m[35m-[0m[35m0xc[0m([34m%rbp[0m),[34m%eax[0m
    4ba1:	0f af d0             	[33mimul   [0m[34m%eax[0m,[34m%edx[0m
    4ba4:	8b 4d f8             	[33mmov    [0m[35m-[0m[35m0x8[0m([34m%rbp[0m),[34m%ecx[0m
    4ba7:	8b 45 f0             	[33mmov    [0m[35m-[0m[35m0x10[0m([34m%rbp[0m),[34m%eax[0m
    4baa:	0f af c1             	[33mimul   [0m[34m%ecx[0m,[34m%eax[0m
    4bad:	89 d6                	[33mmov    [0m[34m%edx[0m,[34m%esi[0m
    4baf:	89 c7                	[33mmov    [0m[34m%eax[0m,[34m%edi[0m
    4bb1:	e8 1b ff ff ff       	[33mcall   [0m[35m4ad1[0m <[32mvec2i[0m>
    4bb6:	c9                   	[33mleave[0m
    4bb7:	c3                   	[33mret[0m

0000000000004bb8 <vec2i_mul3>:
    4bb8:	f3 0f 1e fa          	[33mendbr64[0m
    4bbc:	55                   	[33mpush   [0m[34m%rbp[0m
    4bbd:	48 89 e5             	[33mmov    [0m[34m%rsp[0m,[34m%rbp[0m
    4bc0:	48 83 ec 18          	[33msub    [0m[35m$[0m[35m0x18[0m,[34m%rsp[0m
    4bc4:	48 89 7d f8          	[33mmov    [0m[34m%rdi[0m,[35m-[0m[35m0x8[0m([34m%rbp[0m)
    4bc8:	48 89 75 f0          	[33mmov    [0m[34m%rsi[0m,[35m-[0m[35m0x10[0m([34m%rbp[0m)
    4bcc:	48 89 55 e8          	[33mmov    [0m[34m%rdx[0m,[35m-[0m[35m0x18[0m([34m%rbp[0m)
    4bd0:	48 8b 55 f0          	[33mmov    [0m[35m-[0m[35m0x10[0m([34m%rbp[0m),[34m%rdx[0m
    4bd4:	48 8b 45 f8          	[33mmov    [0m[35m-[0m[35m0x8[0m([34m%rbp[0m),[34m%rax[0m
    4bd8:	48 89 d6             	[33mmov    [0m[34m%rdx[0m,[34m%rsi[0m
    4bdb:	48 89 c7             	[33mmov    [0m[34m%rax[0m,[34m%rdi[0m
    4bde:	e8 a4 ff ff ff       	[33mcall   [0m[35m4b87[0m <[32mvec2i_mul[0m>
    4be3:	48 89 c2             	[33mmov    [0m[34m%rax[0m,[34m%rdx[0m
    4be6:	48 8b 45 e8          	[33mmov    [0m[35m-[0m[35m0x18[0m([34m%rbp[0m),[34m%rax[0m
    4bea:	48 89 c6             	[33mmov    [0m[34m%rax[0m,[34m%rsi[0m
    4bed:	48 89 d7             	[33mmov    [0m[34m%rdx[0m,[34m%rdi[0m
    4bf0:	e8 92 ff ff ff       	[33mcall   [0m[35m4b87[0m <[32mvec2i_mul[0m>
    4bf5:	c9                   	[33mleave[0m
    4bf6:	c3                   	[33mret[0m

0000000000004bf7 <vec2i_div>:
    4bf7:	f3 0f 1e fa          	[33mendbr64[0m
    4bfb:	55                   	[33mpush   [0m[34m%rbp[0m
    4bfc:	48 89 e5             	[33mmov    [0m[34m%rsp[0m,[34m%rbp[0m
    4bff:	48 83 ec 10          	[33msub    [0m[35m$[0m[35m0x10[0m,[34m%rsp[0m
    4c03:	48 89 7d f8          	[33mmov    [0m[34m%rdi[0m,[35m-[0m[35m0x8[0m([34m%rbp[0m)
    4c07:	48 89 75 f0          	[33mmov    [0m[34m%rsi[0m,[35m-[0m[35m0x10[0m([34m%rbp[0m)
    4c0b:	8b 45 fc             	[33mmov    [0m[35m-[0m[35m0x4[0m([34m%rbp[0m),[34m%eax[0m
    4c0e:	8b 4d f4             	[33mmov    [0m[35m-[0m[35m0xc[0m([34m%rbp[0m),[34m%ecx[0m
    4c11:	99                   	[33mcltd[0m
    4c12:	f7 f9                	[33midiv   [0m[34m%ecx[0m
    4c14:	89 c1                	[33mmov    [0m[34m%eax[0m,[34m%ecx[0m
    4c16:	8b 45 f8             	[33mmov    [0m[35m-[0m[35m0x8[0m([34m%rbp[0m),[34m%eax[0m
    4c19:	8b 75 f0             	[33mmov    [0m[35m-[0m[35m0x10[0m([34m%rbp[0m),[34m%esi[0m
    4c1c:	99                   	[33mcltd[0m
    4c1d:	f7 fe                	[33midiv   [0m[34m%esi[0m
    4c1f:	89 ce                	[33mmov    [0m[34m%ecx[0m,[34m%esi[0m
    4c21:	89 c7                	[33mmov    [0m[34m%eax[0m,[34m%edi[0m
    4c23:	e8 a9 fe ff ff       	[33mcall   [0m[35m4ad1[0m <[32mvec2i[0m>
    4c28:	c9                   	[33mleave[0m
    4c29:	c3                   	[33mret[0m

0000000000004c2a <vec4f>:
    4c2a:	f3 0f 1e fa          	[33mendbr64[0m
    4c2e:	55                   	[33mpush   [0m[34m%rbp[0m
    4c2f:	48 89 e5             	[33mmov    [0m[34m%rsp[0m,[34m%rbp[0m
    4c32:	53                   	[33mpush   [0m[34m%rbx[0m
    4c33:	f3 0f 11 45 ec       	[33mmovss  [0m[34m%xmm0[0m,[35m-[0m[35m0x14[0m([34m%rbp[0m)
    4c38:	f3 0f 11 4d e8       	[33mmovss  [0m[34m%xmm1[0m,[35m-[0m[35m0x18[0m([34m%rbp[0m)
    4c3d:	f3 0f 11 55 e4       	[33mmovss  [0m[34m%xmm2[0m,[35m-[0m[35m0x1c[0m([34m%rbp[0m)
    4c42:	f3 0f 11 5d e0       	[33mmovss  [0m[34m%xmm3[0m,[35m-[0m[35m0x20[0m([34m%rbp[0m)
    4c47:	8b 4d ec             	[33mmov    [0m[35m-[0m[35m0x14[0m([34m%rbp[0m),[34m%ecx[0m
    4c4a:	89 ce                	[33mmov    [0m[34m%ecx[0m,[34m%esi[0m
    4c4c:	48 89 c7             	[33mmov    [0m[34m%rax[0m,[34m%rdi[0m
    4c4f:	48 b9 00 00 00 00 ff 	[33mmovabs [0m[35m$[0m[35m0xffffffff00000000[0m,[34m%rcx[0m
    4c56:	ff ff ff 
    4c59:	48 21 f9             	[33mand    [0m[34m%rdi[0m,[34m%rcx[0m
    4c5c:	48 09 f1             	[33mor     [0m[34m%rsi[0m,[34m%rcx[0m
    4c5f:	48 89 c8             	[33mmov    [0m[34m%rcx[0m,[34m%rax[0m
    4c62:	8b 4d e8             	[33mmov    [0m[35m-[0m[35m0x18[0m([34m%rbp[0m),[34m%ecx[0m
    4c65:	89 c9                	[33mmov    [0m[34m%ecx[0m,[34m%ecx[0m
    4c67:	48 c1 e1 20          	[33mshl    [0m[35m$[0m[35m0x20[0m,[34m%rcx[0m
    4c6b:	48 89 c6             	[33mmov    [0m[34m%rax[0m,[34m%rsi[0m
    4c6e:	89 f6                	[33mmov    [0m[34m%esi[0m,[34m%esi[0m
    4c70:	48 09 f1             	[33mor     [0m[34m%rsi[0m,[34m%rcx[0m
    4c73:	48 89 c8             	[33mmov    [0m[34m%rcx[0m,[34m%rax[0m
    4c76:	8b 4d e4             	[33mmov    [0m[35m-[0m[35m0x1c[0m([34m%rbp[0m),[34m%ecx[0m
    4c79:	89 ce                	[33mmov    [0m[34m%ecx[0m,[34m%esi[0m
    4c7b:	48 89 d7             	[33mmov    [0m[34m%rdx[0m,[34m%rdi[0m
    4c7e:	48 b9 00 00 00 00 ff 	[33mmovabs [0m[35m$[0m[35m0xffffffff00000000[0m,[34m%rcx[0m
    4c85:	ff ff ff 
    4c88:	48 21 f9             	[33mand    [0m[34m%rdi[0m,[34m%rcx[0m
    4c8b:	48 09 f1             	[33mor     [0m[34m%rsi[0m,[34m%rcx[0m
    4c8e:	48 89 ca             	[33mmov    [0m[34m%rcx[0m,[34m%rdx[0m
    4c91:	8b 4d e0             	[33mmov    [0m[35m-[0m[35m0x20[0m([34m%rbp[0m),[34m%ecx[0m
    4c94:	89 c9                	[33mmov    [0m[34m%ecx[0m,[34m%ecx[0m
    4c96:	48 c1 e1 20          	[33mshl    [0m[35m$[0m[35m0x20[0m,[34m%rcx[0m
    4c9a:	48 89 d6             	[33mmov    [0m[34m%rdx[0m,[34m%rsi[0m
    4c9d:	89 f6                	[33mmov    [0m[34m%esi[0m,[34m%esi[0m
    4c9f:	48 09 f1             	[33mor     [0m[34m%rsi[0m,[34m%rcx[0m
    4ca2:	48 89 ca             	[33mmov    [0m[34m%rcx[0m,[34m%rdx[0m
    4ca5:	48 89 c1             	[33mmov    [0m[34m%rax[0m,[34m%rcx[0m
    4ca8:	48 89 d3             	[33mmov    [0m[34m%rdx[0m,[34m%rbx[0m
    4cab:	66 48 0f 6e ca       	[33mmovq   [0m[34m%rdx[0m,[34m%xmm1[0m
    4cb0:	66 48 0f 6e c1       	[33mmovq   [0m[34m%rcx[0m,[34m%xmm0[0m
    4cb5:	48 8b 5d f8          	[33mmov    [0m[35m-[0m[35m0x8[0m([34m%rbp[0m),[34m%rbx[0m
    4cb9:	c9                   	[33mleave[0m
    4cba:	c3                   	[33mret[0m

0000000000004cbb <vec4fs>:
    4cbb:	f3 0f 1e fa          	[33mendbr64[0m
    4cbf:	55                   	[33mpush   [0m[34m%rbp[0m
    4cc0:	48 89 e5             	[33mmov    [0m[34m%rsp[0m,[34m%rbp[0m
    4cc3:	53                   	[33mpush   [0m[34m%rbx[0m
    4cc4:	48 83 ec 18          	[33msub    [0m[35m$[0m[35m0x18[0m,[34m%rsp[0m
    4cc8:	f3 0f 11 45 ec       	[33mmovss  [0m[34m%xmm0[0m,[35m-[0m[35m0x14[0m([34m%rbp[0m)
    4ccd:	f3 0f 10 55 ec       	[33mmovss  [0m[35m-[0m[35m0x14[0m([34m%rbp[0m),[34m%xmm2[0m
    4cd2:	f3 0f 10 4d ec       	[33mmovss  [0m[35m-[0m[35m0x14[0m([34m%rbp[0m),[34m%xmm1[0m
    4cd7:	f3 0f 10 45 ec       	[33mmovss  [0m[35m-[0m[35m0x14[0m([34m%rbp[0m),[34m%xmm0[0m
    4cdc:	8b 45 ec             	[33mmov    [0m[35m-[0m[35m0x14[0m([34m%rbp[0m),[34m%eax[0m
    4cdf:	0f 28 da             	[33mmovaps [0m[34m%xmm2[0m,[34m%xmm3[0m
    4ce2:	0f 28 d1             	[33mmovaps [0m[34m%xmm1[0m,[34m%xmm2[0m
    4ce5:	0f 28 c8             	[33mmovaps [0m[34m%xmm0[0m,[34m%xmm1[0m
    4ce8:	66 0f 6e c0          	[33mmovd   [0m[34m%eax[0m,[34m%xmm0[0m
    4cec:	e8 39 ff ff ff       	[33mcall   [0m[35m4c2a[0m <[32mvec4f[0m>
    4cf1:	66 48 0f 7e c0       	[33mmovq   [0m[34m%xmm0[0m,[34m%rax[0m
    4cf6:	66 0f 6f c1          	[33mmovdqa [0m[34m%xmm1[0m,[34m%xmm0[0m
    4cfa:	66 48 0f 7e c2       	[33mmovq   [0m[34m%xmm0[0m,[34m%rdx[0m
    4cff:	48 89 c1             	[33mmov    [0m[34m%rax[0m,[34m%rcx[0m
    4d02:	48 89 d3             	[33mmov    [0m[34m%rdx[0m,[34m%rbx[0m
    4d05:	66 48 0f 6e ca       	[33mmovq   [0m[34m%rdx[0m,[34m%xmm1[0m
    4d0a:	66 48 0f 6e c1       	[33mmovq   [0m[34m%rcx[0m,[34m%xmm0[0m
    4d0f:	48 8b 5d f8          	[33mmov    [0m[35m-[0m[35m0x8[0m([34m%rbp[0m),[34m%rbx[0m
    4d13:	c9                   	[33mleave[0m
    4d14:	c3                   	[33mret[0m

0000000000004d15 <vec4f_add>:
    4d15:	f3 0f 1e fa          	[33mendbr64[0m
    4d19:	55                   	[33mpush   [0m[34m%rbp[0m
    4d1a:	48 89 e5             	[33mmov    [0m[34m%rsp[0m,[34m%rbp[0m
    4d1d:	53                   	[33mpush   [0m[34m%rbx[0m
    4d1e:	48 83 ec 38          	[33msub    [0m[35m$[0m[35m0x38[0m,[34m%rsp[0m
    4d22:	66 48 0f 7e c0       	[33mmovq   [0m[34m%xmm0[0m,[34m%rax[0m
    4d27:	66 0f 6f c1          	[33mmovdqa [0m[34m%xmm1[0m,[34m%xmm0[0m
    4d2b:	66 48 0f 7e c2       	[33mmovq   [0m[34m%xmm0[0m,[34m%rdx[0m
    4d30:	48 89 45 e0          	[33mmov    [0m[34m%rax[0m,[35m-[0m[35m0x20[0m([34m%rbp[0m)
    4d34:	48 89 55 e8          	[33mmov    [0m[34m%rdx[0m,[35m-[0m[35m0x18[0m([34m%rbp[0m)
    4d38:	66 0f 6f c2          	[33mmovdqa [0m[34m%xmm2[0m,[34m%xmm0[0m
    4d3c:	66 0f 6f cb          	[33mmovdqa [0m[34m%xmm3[0m,[34m%xmm1[0m
    4d40:	0f 29 45 c0          	[33mmovaps [0m[34m%xmm0[0m,[35m-[0m[35m0x40[0m([34m%rbp[0m)
    4d44:	48 8b 45 c0          	[33mmov    [0m[35m-[0m[35m0x40[0m([34m%rbp[0m),[34m%rax[0m
    4d48:	48 8b 55 c8          	[33mmov    [0m[35m-[0m[35m0x38[0m([34m%rbp[0m),[34m%rdx[0m
    4d4c:	66 48 0f 7e ca       	[33mmovq   [0m[34m%xmm1[0m,[34m%rdx[0m
    4d51:	48 89 45 d0          	[33mmov    [0m[34m%rax[0m,[35m-[0m[35m0x30[0m([34m%rbp[0m)
    4d55:	48 89 55 d8          	[33mmov    [0m[34m%rdx[0m,[35m-[0m[35m0x28[0m([34m%rbp[0m)
    4d59:	f3 0f 10 4d ec       	[33mmovss  [0m[35m-[0m[35m0x14[0m([34m%rbp[0m),[34m%xmm1[0m
    4d5e:	f3 0f 10 45 dc       	[33mmovss  [0m[35m-[0m[35m0x24[0m([34m%rbp[0m),[34m%xmm0[0m
    4d63:	0f 28 d9             	[33mmovaps [0m[34m%xmm1[0m,[34m%xmm3[0m
    4d66:	f3 0f 58 d8          	[33maddss  [0m[34m%xmm0[0m,[34m%xmm3[0m
    4d6a:	f3 0f 10 4d e8       	[33mmovss  [0m[35m-[0m[35m0x18[0m([34m%rbp[0m),[34m%xmm1[0m
    4d6f:	f3 0f 10 45 d8       	[33mmovss  [0m[35m-[0m[35m0x28[0m([34m%rbp[0m),[34m%xmm0[0m
    4d74:	0f 28 d1             	[33mmovaps [0m[34m%xmm1[0m,[34m%xmm2[0m
    4d77:	f3 0f 58 d0          	[33maddss  [0m[34m%xmm0[0m,[34m%xmm2[0m
    4d7b:	f3 0f 10 4d e4       	[33mmovss  [0m[35m-[0m[35m0x1c[0m([34m%rbp[0m),[34m%xmm1[0m
    4d80:	f3 0f 10 45 d4       	[33mmovss  [0m[35m-[0m[35m0x2c[0m([34m%rbp[0m),[34m%xmm0[0m
    4d85:	0f 28 e1             	[33mmovaps [0m[34m%xmm1[0m,[34m%xmm4[0m
    4d88:	f3 0f 58 e0          	[33maddss  [0m[34m%xmm0[0m,[34m%xmm4[0m
    4d8c:	f3 0f 10 4d e0       	[33mmovss  [0m[35m-[0m[35m0x20[0m([34m%rbp[0m),[34m%xmm1[0m
    4d91:	f3 0f 10 45 d0       	[33mmovss  [0m[35m-[0m[35m0x30[0m([34m%rbp[0m),[34m%xmm0[0m
    4d96:	f3 0f 58 c8          	[33maddss  [0m[34m%xmm0[0m,[34m%xmm1[0m
    4d9a:	66 0f 7e c8          	[33mmovd   [0m[34m%xmm1[0m,[34m%eax[0m
    4d9e:	0f 28 cc             	[33mmovaps [0m[34m%xmm4[0m,[34m%xmm1[0m
    4da1:	66 0f 6e c0          	[33mmovd   [0m[34m%eax[0m,[34m%xmm0[0m
    4da5:	e8 80 fe ff ff       	[33mcall   [0m[35m4c2a[0m <[32mvec4f[0m>
    4daa:	66 48 0f 7e c0       	[33mmovq   [0m[34m%xmm0[0m,[34m%rax[0m
    4daf:	66 0f 6f c1          	[33mmovdqa [0m[34m%xmm1[0m,[34m%xmm0[0m
    4db3:	66 48 0f 7e c2       	[33mmovq   [0m[34m%xmm0[0m,[34m%rdx[0m
    4db8:	48 89 c1             	[33mmov    [0m[34m%rax[0m,[34m%rcx[0m
    4dbb:	48 89 d3             	[33mmov    [0m[34m%rdx[0m,[34m%rbx[0m
    4dbe:	66 48 0f 6e ca       	[33mmovq   [0m[34m%rdx[0m,[34m%xmm1[0m
    4dc3:	66 48 0f 6e c1       	[33mmovq   [0m[34m%rcx[0m,[34m%xmm0[0m
    4dc8:	48 8b 5d f8          	[33mmov    [0m[35m-[0m[35m0x8[0m([34m%rbp[0m),[34m%rbx[0m
    4dcc:	c9                   	[33mleave[0m
    4dcd:	c3                   	[33mret[0m

0000000000004dce <vec4f_sub>:
    4dce:	f3 0f 1e fa          	[33mendbr64[0m
    4dd2:	55                   	[33mpush   [0m[34m%rbp[0m
    4dd3:	48 89 e5             	[33mmov    [0m[34m%rsp[0m,[34m%rbp[0m
    4dd6:	53                   	[33mpush   [0m[34m%rbx[0m
    4dd7:	48 83 ec 38          	[33msub    [0m[35m$[0m[35m0x38[0m,[34m%rsp[0m
    4ddb:	66 48 0f 7e c0       	[33mmovq   [0m[34m%xmm0[0m,[34m%rax[0m
    4de0:	66 0f 6f c1          	[33mmovdqa [0m[34m%xmm1[0m,[34m%xmm0[0m
    4de4:	66 48 0f 7e c2       	[33mmovq   [0m[34m%xmm0[0m,[34m%rdx[0m
    4de9:	48 89 45 e0          	[33mmov    [0m[34m%rax[0m,[35m-[0m[35m0x20[0m([34m%rbp[0m)
    4ded:	48 89 55 e8          	[33mmov    [0m[34m%rdx[0m,[35m-[0m[35m0x18[0m([34m%rbp[0m)
    4df1:	66 0f 6f c2          	[33mmovdqa [0m[34m%xmm2[0m,[34m%xmm0[0m
    4df5:	66 0f 6f cb          	[33mmovdqa [0m[34m%xmm3[0m,[34m%xmm1[0m
    4df9:	0f 29 45 c0          	[33mmovaps [0m[34m%xmm0[0m,[35m-[0m[35m0x40[0m([34m%rbp[0m)
    4dfd:	48 8b 45 c0          	[33mmov    [0m[35m-[0m[35m0x40[0m([34m%rbp[0m),[34m%rax[0m
    4e01:	48 8b 55 c8          	[33mmov    [0m[35m-[0m[35m0x38[0m([34m%rbp[0m),[34m%rdx[0m
    4e05:	66 48 0f 7e ca       	[33mmovq   [0m[34m%xmm1[0m,[34m%rdx[0m
    4e0a:	48 89 45 d0          	[33mmov    [0m[34m%rax[0m,[35m-[0m[35m0x30[0m([34m%rbp[0m)
    4e0e:	48 89 55 d8          	[33mmov    [0m[34m%rdx[0m,[35m-[0m[35m0x28[0m([34m%rbp[0m)
    4e12:	f3 0f 10 45 ec       	[33mmovss  [0m[35m-[0m[35m0x14[0m([34m%rbp[0m),[34m%xmm0[0m
    4e17:	f3 0f 10 4d dc       	[33mmovss  [0m[35m-[0m[35m0x24[0m([34m%rbp[0m),[34m%xmm1[0m
    4e1c:	0f 28 d8             	[33mmovaps [0m[34m%xmm0[0m,[34m%xmm3[0m
    4e1f:	f3 0f 5c d9          	[33msubss  [0m[34m%xmm1[0m,[34m%xmm3[0m
    4e23:	f3 0f 10 45 e8       	[33mmovss  [0m[35m-[0m[35m0x18[0m([34m%rbp[0m),[34m%xmm0[0m
    4e28:	f3 0f 10 4d d8       	[33mmovss  [0m[35m-[0m[35m0x28[0m([34m%rbp[0m),[34m%xmm1[0m
    4e2d:	0f 28 d0             	[33mmovaps [0m[34m%xmm0[0m,[34m%xmm2[0m
    4e30:	f3 0f 5c d1          	[33msubss  [0m[34m%xmm1[0m,[34m%xmm2[0m
    4e34:	f3 0f 10 45 e4       	[33mmovss  [0m[35m-[0m[35m0x1c[0m([34m%rbp[0m),[34m%xmm0[0m
    4e39:	f3 0f 10 4d d4       	[33mmovss  [0m[35m-[0m[35m0x2c[0m([34m%rbp[0m),[34m%xmm1[0m
    4e3e:	0f 28 e0             	[33mmovaps [0m[34m%xmm0[0m,[34m%xmm4[0m
    4e41:	f3 0f 5c e1          	[33msubss  [0m[34m%xmm1[0m,[34m%xmm4[0m
    4e45:	f3 0f 10 45 e0       	[33mmovss  [0m[35m-[0m[35m0x20[0m([34m%rbp[0m),[34m%xmm0[0m
    4e4a:	f3 0f 10 4d d0       	[33mmovss  [0m[35m-[0m[35m0x30[0m([34m%rbp[0m),[34m%xmm1[0m
    4e4f:	f3 0f 5c c1          	[33msubss  [0m[34m%xmm1[0m,[34m%xmm0[0m
    4e53:	66 0f 7e c0          	[33mmovd   [0m[34m%xmm0[0m,[34m%eax[0m
    4e57:	0f 28 cc             	[33mmovaps [0m[34m%xmm4[0m,[34m%xmm1[0m
    4e5a:	66 0f 6e c0          	[33mmovd   [0m[34m%eax[0m,[34m%xmm0[0m
    4e5e:	e8 c7 fd ff ff       	[33mcall   [0m[35m4c2a[0m <[32mvec4f[0m>
    4e63:	66 48 0f 7e c0       	[33mmovq   [0m[34m%xmm0[0m,[34m%rax[0m
    4e68:	66 0f 6f c1          	[33mmovdqa [0m[34m%xmm1[0m,[34m%xmm0[0m
    4e6c:	66 48 0f 7e c2       	[33mmovq   [0m[34m%xmm0[0m,[34m%rdx[0m
    4e71:	48 89 c1             	[33mmov    [0m[34m%rax[0m,[34m%rcx[0m
    4e74:	48 89 d3             	[33mmov    [0m[34m%rdx[0m,[34m%rbx[0m
    4e77:	66 48 0f 6e ca       	[33mmovq   [0m[34m%rdx[0m,[34m%xmm1[0m
    4e7c:	66 48 0f 6e c1       	[33mmovq   [0m[34m%rcx[0m,[34m%xmm0[0m
    4e81:	48 8b 5d f8          	[33mmov    [0m[35m-[0m[35m0x8[0m([34m%rbp[0m),[34m%rbx[0m
    4e85:	c9                   	[33mleave[0m
    4e86:	c3                   	[33mret[0m

0000000000004e87 <vec4f_mul>:
    4e87:	f3 0f 1e fa          	[33mendbr64[0m
    4e8b:	55                   	[33mpush   [0m[34m%rbp[0m
    4e8c:	48 89 e5             	[33mmov    [0m[34m%rsp[0m,[34m%rbp[0m
    4e8f:	53                   	[33mpush   [0m[34m%rbx[0m
    4e90:	48 83 ec 38          	[33msub    [0m[35m$[0m[35m0x38[0m,[34m%rsp[0m
    4e94:	66 48 0f 7e c0       	[33mmovq   [0m[34m%xmm0[0m,[34m%rax[0m
    4e99:	66 0f 6f c1          	[33mmovdqa [0m[34m%xmm1[0m,[34m%xmm0[0m
    4e9d:	66 48 0f 7e c2       	[33mmovq   [0m[34m%xmm0[0m,[34m%rdx[0m
    4ea2:	48 89 45 e0          	[33mmov    [0m[34m%rax[0m,[35m-[0m[35m0x20[0m([34m%rbp[0m)
    4ea6:	48 89 55 e8          	[33mmov    [0m[34m%rdx[0m,[35m-[0m[35m0x18[0m([34m%rbp[0m)
    4eaa:	66 0f 6f c2          	[33mmovdqa [0m[34m%xmm2[0m,[34m%xmm0[0m
    4eae:	66 0f 6f cb          	[33mmovdqa [0m[34m%xmm3[0m,[34m%xmm1[0m
    4eb2:	0f 29 45 c0          	[33mmovaps [0m[34m%xmm0[0m,[35m-[0m[35m0x40[0m([34m%rbp[0m)
    4eb6:	48 8b 45 c0          	[33mmov    [0m[35m-[0m[35m0x40[0m([34m%rbp[0m),[34m%rax[0m
    4eba:	48 8b 55 c8          	[33mmov    [0m[35m-[0m[35m0x38[0m([34m%rbp[0m),[34m%rdx[0m
    4ebe:	66 48 0f 7e ca       	[33mmovq   [0m[34m%xmm1[0m,[34m%rdx[0m
    4ec3:	48 89 45 d0          	[33mmov    [0m[34m%rax[0m,[35m-[0m[35m0x30[0m([34m%rbp[0m)
    4ec7:	48 89 55 d8          	[33mmov    [0m[34m%rdx[0m,[35m-[0m[35m0x28[0m([34m%rbp[0m)
    4ecb:	f3 0f 10 4d ec       	[33mmovss  [0m[35m-[0m[35m0x14[0m([34m%rbp[0m),[34m%xmm1[0m
    4ed0:	f3 0f 10 45 dc       	[33mmovss  [0m[35m-[0m[35m0x24[0m([34m%rbp[0m),[34m%xmm0[0m
    4ed5:	0f 28 d9             	[33mmovaps [0m[34m%xmm1[0m,[34m%xmm3[0m
    4ed8:	f3 0f 59 d8          	[33mmulss  [0m[34m%xmm0[0m,[34m%xmm3[0m
    4edc:	f3 0f 10 4d e8       	[33mmovss  [0m[35m-[0m[35m0x18[0m([34m%rbp[0m),[34m%xmm1[0m
    4ee1:	f3 0f 10 45 d8       	[33mmovss  [0m[35m-[0m[35m0x28[0m([34m%rbp[0m),[34m%xmm0[0m
    4ee6:	0f 28 d1             	[33mmovaps [0m[34m%xmm1[0m,[34m%xmm2[0m
    4ee9:	f3 0f 59 d0          	[33mmulss  [0m[34m%xmm0[0m,[34m%xmm2[0m
    4eed:	f3 0f 10 4d e4       	[33mmovss  [0m[35m-[0m[35m0x1c[0m([34m%rbp[0m),[34m%xmm1[0m
    4ef2:	f3 0f 10 45 d4       	[33mmovss  [0m[35m-[0m[35m0x2c[0m([34m%rbp[0m),[34m%xmm0[0m
    4ef7:	0f 28 e1             	[33mmovaps [0m[34m%xmm1[0m,[34m%xmm4[0m
    4efa:	f3 0f 59 e0          	[33mmulss  [0m[34m%xmm0[0m,[34m%xmm4[0m
    4efe:	f3 0f 10 4d e0       	[33mmovss  [0m[35m-[0m[35m0x20[0m([34m%rbp[0m),[34m%xmm1[0m
    4f03:	f3 0f 10 45 d0       	[33mmovss  [0m[35m-[0m[35m0x30[0m([34m%rbp[0m),[34m%xmm0[0m
    4f08:	f3 0f 59 c8          	[33mmulss  [0m[34m%xmm0[0m,[34m%xmm1[0m
    4f0c:	66 0f 7e c8          	[33mmovd   [0m[34m%xmm1[0m,[34m%eax[0m
    4f10:	0f 28 cc             	[33mmovaps [0m[34m%xmm4[0m,[34m%xmm1[0m
    4f13:	66 0f 6e c0          	[33mmovd   [0m[34m%eax[0m,[34m%xmm0[0m
    4f17:	e8 0e fd ff ff       	[33mcall   [0m[35m4c2a[0m <[32mvec4f[0m>
    4f1c:	66 48 0f 7e c0       	[33mmovq   [0m[34m%xmm0[0m,[34m%rax[0m
    4f21:	66 0f 6f c1          	[33mmovdqa [0m[34m%xmm1[0m,[34m%xmm0[0m
    4f25:	66 48 0f 7e c2       	[33mmovq   [0m[34m%xmm0[0m,[34m%rdx[0m
    4f2a:	48 89 c1             	[33mmov    [0m[34m%rax[0m,[34m%rcx[0m
    4f2d:	48 89 d3             	[33mmov    [0m[34m%rdx[0m,[34m%rbx[0m
    4f30:	66 48 0f 6e ca       	[33mmovq   [0m[34m%rdx[0m,[34m%xmm1[0m
    4f35:	66 48 0f 6e c1       	[33mmovq   [0m[34m%rcx[0m,[34m%xmm0[0m
    4f3a:	48 8b 5d f8          	[33mmov    [0m[35m-[0m[35m0x8[0m([34m%rbp[0m),[34m%rbx[0m
    4f3e:	c9                   	[33mleave[0m
    4f3f:	c3                   	[33mret[0m

0000000000004f40 <vec4f_div>:
    4f40:	f3 0f 1e fa          	[33mendbr64[0m
    4f44:	55                   	[33mpush   [0m[34m%rbp[0m
    4f45:	48 89 e5             	[33mmov    [0m[34m%rsp[0m,[34m%rbp[0m
    4f48:	53                   	[33mpush   [0m[34m%rbx[0m
    4f49:	48 83 ec 38          	[33msub    [0m[35m$[0m[35m0x38[0m,[34m%rsp[0m
    4f4d:	66 48 0f 7e c0       	[33mmovq   [0m[34m%xmm0[0m,[34m%rax[0m
    4f52:	66 0f 6f c1          	[33mmovdqa [0m[34m%xmm1[0m,[34m%xmm0[0m
    4f56:	66 48 0f 7e c2       	[33mmovq   [0m[34m%xmm0[0m,[34m%rdx[0m
    4f5b:	48 89 45 e0          	[33mmov    [0m[34m%rax[0m,[35m-[0m[35m0x20[0m([34m%rbp[0m)
    4f5f:	48 89 55 e8          	[33mmov    [0m[34m%rdx[0m,[35m-[0m[35m0x18[0m([34m%rbp[0m)
    4f63:	66 0f 6f c2          	[33mmovdqa [0m[34m%xmm2[0m,[34m%xmm0[0m
    4f67:	66 0f 6f cb          	[33mmovdqa [0m[34m%xmm3[0m,[34m%xmm1[0m
    4f6b:	0f 29 45 c0          	[33mmovaps [0m[34m%xmm0[0m,[35m-[0m[35m0x40[0m([34m%rbp[0m)
    4f6f:	48 8b 45 c0          	[33mmov    [0m[35m-[0m[35m0x40[0m([34m%rbp[0m),[34m%rax[0m
    4f73:	48 8b 55 c8          	[33mmov    [0m[35m-[0m[35m0x38[0m([34m%rbp[0m),[34m%rdx[0m
    4f77:	66 48 0f 7e ca       	[33mmovq   [0m[34m%xmm1[0m,[34m%rdx[0m
    4f7c:	48 89 45 d0          	[33mmov    [0m[34m%rax[0m,[35m-[0m[35m0x30[0m([34m%rbp[0m)
    4f80:	48 89 55 d8          	[33mmov    [0m[34m%rdx[0m,[35m-[0m[35m0x28[0m([34m%rbp[0m)
    4f84:	f3 0f 10 45 ec       	[33mmovss  [0m[35m-[0m[35m0x14[0m([34m%rbp[0m),[34m%xmm0[0m
    4f89:	f3 0f 10 4d dc       	[33mmovss  [0m[35m-[0m[35m0x24[0m([34m%rbp[0m),[34m%xmm1[0m
    4f8e:	0f 28 d8             	[33mmovaps [0m[34m%xmm0[0m,[34m%xmm3[0m
    4f91:	f3 0f 5e d9          	[33mdivss  [0m[34m%xmm1[0m,[34m%xmm3[0m
    4f95:	f3 0f 10 45 e8       	[33mmovss  [0m[35m-[0m[35m0x18[0m([34m%rbp[0m),[34m%xmm0[0m
    4f9a:	f3 0f 10 4d d8       	[33mmovss  [0m[35m-[0m[35m0x28[0m([34m%rbp[0m),[34m%xmm1[0m
    4f9f:	0f 28 d0             	[33mmovaps [0m[34m%xmm0[0m,[34m%xmm2[0m
    4fa2:	f3 0f 5e d1          	[33mdivss  [0m[34m%xmm1[0m,[34m%xmm2[0m
    4fa6:	f3 0f 10 45 e4       	[33mmovss  [0m[35m-[0m[35m0x1c[0m([34m%rbp[0m),[34m%xmm0[0m
    4fab:	f3 0f 10 4d d4       	[33mmovss  [0m[35m-[0m[35m0x2c[0m([34m%rbp[0m),[34m%xmm1[0m
    4fb0:	0f 28 e0             	[33mmovaps [0m[34m%xmm0[0m,[34m%xmm4[0m
    4fb3:	f3 0f 5e e1          	[33mdivss  [0m[34m%xmm1[0m,[34m%xmm4[0m
    4fb7:	f3 0f 10 45 e0       	[33mmovss  [0m[35m-[0m[35m0x20[0m([34m%rbp[0m),[34m%xmm0[0m
    4fbc:	f3 0f 10 4d d0       	[33mmovss  [0m[35m-[0m[35m0x30[0m([34m%rbp[0m),[34m%xmm1[0m
    4fc1:	f3 0f 5e c1          	[33mdivss  [0m[34m%xmm1[0m,[34m%xmm0[0m
    4fc5:	66 0f 7e c0          	[33mmovd   [0m[34m%xmm0[0m,[34m%eax[0m
    4fc9:	0f 28 cc             	[33mmovaps [0m[34m%xmm4[0m,[34m%xmm1[0m
    4fcc:	66 0f 6e c0          	[33mmovd   [0m[34m%eax[0m,[34m%xmm0[0m
    4fd0:	e8 55 fc ff ff       	[33mcall   [0m[35m4c2a[0m <[32mvec4f[0m>
    4fd5:	66 48 0f 7e c0       	[33mmovq   [0m[34m%xmm0[0m,[34m%rax[0m
    4fda:	66 0f 6f c1          	[33mmovdqa [0m[34m%xmm1[0m,[34m%xmm0[0m
    4fde:	66 48 0f 7e c2       	[33mmovq   [0m[34m%xmm0[0m,[34m%rdx[0m
    4fe3:	48 89 c1             	[33mmov    [0m[34m%rax[0m,[34m%rcx[0m
    4fe6:	48 89 d3             	[33mmov    [0m[34m%rdx[0m,[34m%rbx[0m
    4fe9:	66 48 0f 6e ca       	[33mmovq   [0m[34m%rdx[0m,[34m%xmm1[0m
    4fee:	66 48 0f 6e c1       	[33mmovq   [0m[34m%rcx[0m,[34m%xmm0[0m
    4ff3:	48 8b 5d f8          	[33mmov    [0m[35m-[0m[35m0x8[0m([34m%rbp[0m),[34m%rbx[0m
    4ff7:	c9                   	[33mleave[0m
    4ff8:	c3                   	[33mret[0m

0000000000004ff9 <lerpf>:
    4ff9:	f3 0f 1e fa          	[33mendbr64[0m
    4ffd:	55                   	[33mpush   [0m[34m%rbp[0m
    4ffe:	48 89 e5             	[33mmov    [0m[34m%rsp[0m,[34m%rbp[0m
    5001:	f3 0f 11 45 fc       	[33mmovss  [0m[34m%xmm0[0m,[35m-[0m[35m0x4[0m([34m%rbp[0m)
    5006:	f3 0f 11 4d f8       	[33mmovss  [0m[34m%xmm1[0m,[35m-[0m[35m0x8[0m([34m%rbp[0m)
    500b:	f3 0f 11 55 f4       	[33mmovss  [0m[34m%xmm2[0m,[35m-[0m[35m0xc[0m([34m%rbp[0m)
    5010:	f3 0f 10 45 f8       	[33mmovss  [0m[35m-[0m[35m0x8[0m([34m%rbp[0m),[34m%xmm0[0m
    5015:	f3 0f 5c 45 fc       	[33msubss  [0m[35m-[0m[35m0x4[0m([34m%rbp[0m),[34m%xmm0[0m
    501a:	f3 0f 59 45 f4       	[33mmulss  [0m[35m-[0m[35m0xc[0m([34m%rbp[0m),[34m%xmm0[0m
    501f:	f3 0f 58 45 fc       	[33maddss  [0m[35m-[0m[35m0x4[0m([34m%rbp[0m),[34m%xmm0[0m
    5024:	5d                   	[33mpop    [0m[34m%rbp[0m
    5025:	c3                   	[33mret[0m

0000000000005026 <editor_backspace>:
    5026:	f3 0f 1e fa          	[33mendbr64[0m
    502a:	55                   	[33mpush   [0m[34m%rbp[0m
    502b:	48 89 e5             	[33mmov    [0m[34m%rsp[0m,[34m%rbp[0m
    502e:	48 83 ec 10          	[33msub    [0m[35m$[0m[35m0x10[0m,[34m%rsp[0m
    5032:	48 89 7d f8          	[33mmov    [0m[34m%rdi[0m,[35m-[0m[35m0x8[0m([34m%rbp[0m)
    5036:	48 8b 45 f8          	[33mmov    [0m[35m-[0m[35m0x8[0m([34m%rbp[0m),[34m%rax[0m
    503a:	0f b6 40 68          	[33mmovzbl [0m[35m0x68[0m([34m%rax[0m),[34m%eax[0m
    503e:	84 c0                	[33mtest   [0m[34m%al[0m,[34m%al[0m
    5040:	74 2a                	[33mje     [0m[35m506c[0m <[32meditor_backspace[0m[35m+0x[0m[35m46[0m>
    5042:	48 8b 45 f8          	[33mmov    [0m[35m-[0m[35m0x8[0m([34m%rbp[0m),[34m%rax[0m
    5046:	48 8b 40 78          	[33mmov    [0m[35m0x78[0m([34m%rax[0m),[34m%rax[0m
    504a:	48 85 c0             	[33mtest   [0m[34m%rax[0m,[34m%rax[0m
    504d:	0f 84 e6 00 00 00    	[33mje     [0m[35m5139[0m <[32meditor_backspace[0m[35m+0x[0m[35m113[0m>
    5053:	48 8b 45 f8          	[33mmov    [0m[35m-[0m[35m0x8[0m([34m%rbp[0m),[34m%rax[0m
    5057:	48 8b 40 78          	[33mmov    [0m[35m0x78[0m([34m%rax[0m),[34m%rax[0m
    505b:	48 8d 50 ff          	[33mlea    [0m[35m-[0m[35m0x1[0m([34m%rax[0m),[34m%rdx[0m
    505f:	48 8b 45 f8          	[33mmov    [0m[35m-[0m[35m0x8[0m([34m%rbp[0m),[34m%rax[0m
    5063:	48 89 50 78          	[33mmov    [0m[34m%rdx[0m,[35m0x78[0m([34m%rax[0m)
    5067:	e9 cd 00 00 00       	[33mjmp    [0m[35m5139[0m <[32meditor_backspace[0m[35m+0x[0m[35m113[0m>
    506c:	48 8b 45 f8          	[33mmov    [0m[35m-[0m[35m0x8[0m([34m%rbp[0m),[34m%rax[0m
    5070:	48 8b 80 98 00 00 00 	[33mmov    [0m[35m0x98[0m([34m%rax[0m),[34m%rax[0m
    5077:	48 8b 55 f8          	[33mmov    [0m[35m-[0m[35m0x8[0m([34m%rbp[0m),[34m%rdx[0m
    507b:	48 8b 52 10          	[33mmov    [0m[35m0x10[0m([34m%rdx[0m),[34m%rdx[0m
    507f:	48 39 c2             	[33mcmp    [0m[34m%rax[0m,[34m%rdx[0m
    5082:	73 13                	[33mjae    [0m[35m5097[0m <[32meditor_backspace[0m[35m+0x[0m[35m71[0m>
    5084:	48 8b 45 f8          	[33mmov    [0m[35m-[0m[35m0x8[0m([34m%rbp[0m),[34m%rax[0m
    5088:	48 8b 50 10          	[33mmov    [0m[35m0x10[0m([34m%rax[0m),[34m%rdx[0m
    508c:	48 8b 45 f8          	[33mmov    [0m[35m-[0m[35m0x8[0m([34m%rbp[0m),[34m%rax[0m
    5090:	48 89 90 98 00 00 00 	[33mmov    [0m[34m%rdx[0m,[35m0x98[0m([34m%rax[0m)
    5097:	48 8b 45 f8          	[33mmov    [0m[35m-[0m[35m0x8[0m([34m%rbp[0m),[34m%rax[0m
    509b:	48 8b 80 98 00 00 00 	[33mmov    [0m[35m0x98[0m([34m%rax[0m),[34m%rax[0m
    50a2:	48 85 c0             	[33mtest   [0m[34m%rax[0m,[34m%rax[0m
    50a5:	0f 84 8d 00 00 00    	[33mje     [0m[35m5138[0m <[32meditor_backspace[0m[35m+0x[0m[35m112[0m>
    50ab:	48 8b 45 f8          	[33mmov    [0m[35m-[0m[35m0x8[0m([34m%rbp[0m),[34m%rax[0m
    50af:	48 8b 50 10          	[33mmov    [0m[35m0x10[0m([34m%rax[0m),[34m%rdx[0m
    50b3:	48 8b 45 f8          	[33mmov    [0m[35m-[0m[35m0x8[0m([34m%rbp[0m),[34m%rax[0m
    50b7:	48 8b 80 98 00 00 00 	[33mmov    [0m[35m0x98[0m([34m%rax[0m),[34m%rax[0m
    50be:	48 29 c2             	[33msub    [0m[34m%rax[0m,[34m%rdx[0m
    50c1:	48 8b 45 f8          	[33mmov    [0m[35m-[0m[35m0x8[0m([34m%rbp[0m),[34m%rax[0m
    50c5:	48 8b 48 08          	[33mmov    [0m[35m0x8[0m([34m%rax[0m),[34m%rcx[0m
    50c9:	48 8b 45 f8          	[33mmov    [0m[35m-[0m[35m0x8[0m([34m%rbp[0m),[34m%rax[0m
    50cd:	48 8b 80 98 00 00 00 	[33mmov    [0m[35m0x98[0m([34m%rax[0m),[34m%rax[0m
    50d4:	48 01 c1             	[33madd    [0m[34m%rax[0m,[34m%rcx[0m
    50d7:	48 8b 45 f8          	[33mmov    [0m[35m-[0m[35m0x8[0m([34m%rbp[0m),[34m%rax[0m
    50db:	48 8b 70 08          	[33mmov    [0m[35m0x8[0m([34m%rax[0m),[34m%rsi[0m
    50df:	48 8b 45 f8          	[33mmov    [0m[35m-[0m[35m0x8[0m([34m%rbp[0m),[34m%rax[0m
    50e3:	48 8b 80 98 00 00 00 	[33mmov    [0m[35m0x98[0m([34m%rax[0m),[34m%rax[0m
    50ea:	48 83 e8 01          	[33msub    [0m[35m$[0m[35m0x1[0m,[34m%rax[0m
    50ee:	48 01 f0             	[33madd    [0m[34m%rsi[0m,[34m%rax[0m
    50f1:	48 89 ce             	[33mmov    [0m[34m%rcx[0m,[34m%rsi[0m
    50f4:	48 89 c7             	[33mmov    [0m[34m%rax[0m,[34m%rdi[0m
    50f7:	e8 84 e5 ff ff       	[33mcall   [0m[35m3680[0m <[32mmemmove@plt[0m>
    50fc:	48 8b 45 f8          	[33mmov    [0m[35m-[0m[35m0x8[0m([34m%rbp[0m),[34m%rax[0m
    5100:	48 8b 80 98 00 00 00 	[33mmov    [0m[35m0x98[0m([34m%rax[0m),[34m%rax[0m
    5107:	48 8d 50 ff          	[33mlea    [0m[35m-[0m[35m0x1[0m([34m%rax[0m),[34m%rdx[0m
    510b:	48 8b 45 f8          	[33mmov    [0m[35m-[0m[35m0x8[0m([34m%rbp[0m),[34m%rax[0m
    510f:	48 89 90 98 00 00 00 	[33mmov    [0m[34m%rdx[0m,[35m0x98[0m([34m%rax[0m)
    5116:	48 8b 45 f8          	[33mmov    [0m[35m-[0m[35m0x8[0m([34m%rbp[0m),[34m%rax[0m
    511a:	48 8b 40 10          	[33mmov    [0m[35m0x10[0m([34m%rax[0m),[34m%rax[0m
    511e:	48 8d 50 ff          	[33mlea    [0m[35m-[0m[35m0x1[0m([34m%rax[0m),[34m%rdx[0m
    5122:	48 8b 45 f8          	[33mmov    [0m[35m-[0m[35m0x8[0m([34m%rbp[0m),[34m%rax[0m
    5126:	48 89 50 10          	[33mmov    [0m[34m%rdx[0m,[35m0x10[0m([34m%rax[0m)
    512a:	48 8b 45 f8          	[33mmov    [0m[35m-[0m[35m0x8[0m([34m%rbp[0m),[34m%rax[0m
    512e:	48 89 c7             	[33mmov    [0m[34m%rax[0m,[34m%rdi[0m
    5131:	e8 d4 0e 00 00       	[33mcall   [0m[35m600a[0m <[32meditor_retokenize[0m>
    5136:	eb 01                	[33mjmp    [0m[35m5139[0m <[32meditor_backspace[0m[35m+0x[0m[35m113[0m>
    5138:	90                   	[33mnop[0m
    5139:	c9                   	[33mleave[0m
    513a:	c3                   	[33mret[0m

000000000000513b <editor_delete>:
    513b:	f3 0f 1e fa          	[33mendbr64[0m
    513f:	55                   	[33mpush   [0m[34m%rbp[0m
    5140:	48 89 e5             	[33mmov    [0m[34m%rsp[0m,[34m%rbp[0m
    5143:	48 83 ec 10          	[33msub    [0m[35m$[0m[35m0x10[0m,[34m%rsp[0m
    5147:	48 89 7d f8          	[33mmov    [0m[34m%rdi[0m,[35m-[0m[35m0x8[0m([34m%rbp[0m)
    514b:	48 8b 45 f8          	[33mmov    [0m[35m-[0m[35m0x8[0m([34m%rbp[0m),[34m%rax[0m
    514f:	0f b6 40 68          	[33mmovzbl [0m[35m0x68[0m([34m%rax[0m),[34m%eax[0m
    5153:	84 c0                	[33mtest   [0m[34m%al[0m,[34m%al[0m
    5155:	0f 85 8f 00 00 00    	[33mjne    [0m[35m51ea[0m <[32meditor_delete[0m[35m+0x[0m[35maf[0m>
    515b:	48 8b 45 f8          	[33mmov    [0m[35m-[0m[35m0x8[0m([34m%rbp[0m),[34m%rax[0m
    515f:	48 8b 90 98 00 00 00 	[33mmov    [0m[35m0x98[0m([34m%rax[0m),[34m%rdx[0m
    5166:	48 8b 45 f8          	[33mmov    [0m[35m-[0m[35m0x8[0m([34m%rbp[0m),[34m%rax[0m
    516a:	48 8b 40 10          	[33mmov    [0m[35m0x10[0m([34m%rax[0m),[34m%rax[0m
    516e:	48 39 c2             	[33mcmp    [0m[34m%rax[0m,[34m%rdx[0m
    5171:	73 7a                	[33mjae    [0m[35m51ed[0m <[32meditor_delete[0m[35m+0x[0m[35mb2[0m>
    5173:	48 8b 45 f8          	[33mmov    [0m[35m-[0m[35m0x8[0m([34m%rbp[0m),[34m%rax[0m
    5177:	48 8b 50 10          	[33mmov    [0m[35m0x10[0m([34m%rax[0m),[34m%rdx[0m
    517b:	48 8b 45 f8          	[33mmov    [0m[35m-[0m[35m0x8[0m([34m%rbp[0m),[34m%rax[0m
    517f:	48 8b 80 98 00 00 00 	[33mmov    [0m[35m0x98[0m([34m%rax[0m),[34m%rax[0m
    5186:	48 29 c2             	[33msub    [0m[34m%rax[0m,[34m%rdx[0m
    5189:	48 83 ea 01          	[33msub    [0m[35m$[0m[35m0x1[0m,[34m%rdx[0m
    518d:	48 8b 45 f8          	[33mmov    [0m[35m-[0m[35m0x8[0m([34m%rbp[0m),[34m%rax[0m
    5191:	48 8b 48 08          	[33mmov    [0m[35m0x8[0m([34m%rax[0m),[34m%rcx[0m
    5195:	48 8b 45 f8          	[33mmov    [0m[35m-[0m[35m0x8[0m([34m%rbp[0m),[34m%rax[0m
    5199:	48 8b 80 98 00 00 00 	[33mmov    [0m[35m0x98[0m([34m%rax[0m),[34m%rax[0m
    51a0:	48 83 c0 01          	[33madd    [0m[35m$[0m[35m0x1[0m,[34m%rax[0m
    51a4:	48 01 c1             	[33madd    [0m[34m%rax[0m,[34m%rcx[0m
    51a7:	48 8b 45 f8          	[33mmov    [0m[35m-[0m[35m0x8[0m([34m%rbp[0m),[34m%rax[0m
    51ab:	48 8b 70 08          	[33mmov    [0m[35m0x8[0m([34m%rax[0m),[34m%rsi[0m
    51af:	48 8b 45 f8          	[33mmov    [0m[35m-[0m[35m0x8[0m([34m%rbp[0m),[34m%rax[0m
    51b3:	48 8b 80 98 00 00 00 	[33mmov    [0m[35m0x98[0m([34m%rax[0m),[34m%rax[0m
    51ba:	48 01 f0             	[33madd    [0m[34m%rsi[0m,[34m%rax[0m
    51bd:	48 89 ce             	[33mmov    [0m[34m%rcx[0m,[34m%rsi[0m
    51c0:	48 89 c7             	[33mmov    [0m[34m%rax[0m,[34m%rdi[0m
    51c3:	e8 b8 e4 ff ff       	[33mcall   [0m[35m3680[0m <[32mmemmove@plt[0m>
    51c8:	48 8b 45 f8          	[33mmov    [0m[35m-[0m[35m0x8[0m([34m%rbp[0m),[34m%rax[0m
    51cc:	48 8b 40 10          	[33mmov    [0m[35m0x10[0m([34m%rax[0m),[34m%rax[0m
    51d0:	48 8d 50 ff          	[33mlea    [0m[35m-[0m[35m0x1[0m([34m%rax[0m),[34m%rdx[0m
    51d4:	48 8b 45 f8          	[33mmov    [0m[35m-[0m[35m0x8[0m([34m%rbp[0m),[34m%rax[0m
    51d8:	48 89 50 10          	[33mmov    [0m[34m%rdx[0m,[35m0x10[0m([34m%rax[0m)
    51dc:	48 8b 45 f8          	[33mmov    [0m[35m-[0m[35m0x8[0m([34m%rbp[0m),[34m%rax[0m
    51e0:	48 89 c7             	[33mmov    [0m[34m%rax[0m,[34m%rdi[0m
    51e3:	e8 22 0e 00 00       	[33mcall   [0m[35m600a[0m <[32meditor_retokenize[0m>
    51e8:	eb 04                	[33mjmp    [0m[35m51ee[0m <[32meditor_delete[0m[35m+0x[0m[35mb3[0m>
    51ea:	90                   	[33mnop[0m
    51eb:	eb 01                	[33mjmp    [0m[35m51ee[0m <[32meditor_delete[0m[35m+0x[0m[35mb3[0m>
    51ed:	90                   	[33mnop[0m
    51ee:	c9                   	[33mleave[0m
    51ef:	c3                   	[33mret[0m

00000000000051f0 <editor_save_as>:
    51f0:	f3 0f 1e fa          	[33mendbr64[0m
    51f4:	55                   	[33mpush   [0m[34m%rbp[0m
    51f5:	48 89 e5             	[33mmov    [0m[34m%rsp[0m,[34m%rbp[0m
    51f8:	48 83 ec 30          	[33msub    [0m[35m$[0m[35m0x30[0m,[34m%rsp[0m
    51fc:	48 89 7d d8          	[33mmov    [0m[34m%rdi[0m,[35m-[0m[35m0x28[0m([34m%rbp[0m)
    5200:	48 89 75 d0          	[33mmov    [0m[34m%rsi[0m,[35m-[0m[35m0x30[0m([34m%rbp[0m)
    5204:	48 8b 45 d0          	[33mmov    [0m[35m-[0m[35m0x30[0m([34m%rbp[0m),[34m%rax[0m
    5208:	48 89 c6             	[33mmov    [0m[34m%rax[0m,[34m%rsi[0m
    520b:	48 8d 05 5e 92 00 00 	[33mlea    [0m[35m0x925e[0m([34m%rip[0m),[34m%rax[0m        # e470 <_IO_stdin_used+0x470>
    5212:	48 89 c7             	[33mmov    [0m[34m%rax[0m,[34m%rdi[0m
    5215:	b8 00 00 00 00       	[33mmov    [0m[35m$[0m[35m0x0[0m,[34m%eax[0m
    521a:	e8 21 e2 ff ff       	[33mcall   [0m[35m3440[0m <[32mprintf@plt[0m>
    521f:	48 8b 45 d8          	[33mmov    [0m[35m-[0m[35m0x28[0m([34m%rbp[0m),[34m%rax[0m
    5223:	48 8b 50 10          	[33mmov    [0m[35m0x10[0m([34m%rax[0m),[34m%rdx[0m
    5227:	48 8b 45 d8          	[33mmov    [0m[35m-[0m[35m0x28[0m([34m%rbp[0m),[34m%rax[0m
    522b:	48 8b 48 08          	[33mmov    [0m[35m0x8[0m([34m%rax[0m),[34m%rcx[0m
    522f:	48 8b 45 d0          	[33mmov    [0m[35m-[0m[35m0x30[0m([34m%rbp[0m),[34m%rax[0m
    5233:	48 89 ce             	[33mmov    [0m[34m%rcx[0m,[34m%rsi[0m
    5236:	48 89 c7             	[33mmov    [0m[34m%rax[0m,[34m%rdi[0m
    5239:	e8 a3 6f 00 00       	[33mcall   [0m[35mc1e1[0m <[32mwrite_entire_file[0m>
    523e:	89 45 ec             	[33mmov    [0m[34m%eax[0m,[35m-[0m[35m0x14[0m([34m%rbp[0m)
    5241:	83 7d ec 00          	[33mcmpl   [0m[35m$[0m[35m0x0[0m,[35m-[0m[35m0x14[0m([34m%rbp[0m)
    5245:	74 08                	[33mje     [0m[35m524f[0m <[32meditor_save_as[0m[35m+0x[0m[35m5f[0m>
    5247:	8b 45 ec             	[33mmov    [0m[35m-[0m[35m0x14[0m([34m%rbp[0m),[34m%eax[0m
    524a:	e9 25 02 00 00       	[33mjmp    [0m[35m5474[0m <[32meditor_save_as[0m[35m+0x[0m[35m284[0m>
    524f:	48 8b 45 d8          	[33mmov    [0m[35m-[0m[35m0x28[0m([34m%rbp[0m),[34m%rax[0m
    5253:	48 c7 40 58 00 00 00 	[33mmovq   [0m[35m$[0m[35m0x0[0m,[35m0x58[0m([34m%rax[0m)
    525a:	00 
    525b:	48 8b 45 d0          	[33mmov    [0m[35m-[0m[35m0x30[0m([34m%rbp[0m),[34m%rax[0m
    525f:	48 89 45 f0          	[33mmov    [0m[34m%rax[0m,[35m-[0m[35m0x10[0m([34m%rbp[0m)
    5263:	48 8b 45 f0          	[33mmov    [0m[35m-[0m[35m0x10[0m([34m%rbp[0m),[34m%rax[0m
    5267:	48 89 c7             	[33mmov    [0m[34m%rax[0m,[34m%rdi[0m
    526a:	e8 01 e3 ff ff       	[33mcall   [0m[35m3570[0m <[32mstrlen@plt[0m>
    526f:	48 89 45 f8          	[33mmov    [0m[34m%rax[0m,[35m-[0m[35m0x8[0m([34m%rbp[0m)
    5273:	48 8b 45 d8          	[33mmov    [0m[35m-[0m[35m0x28[0m([34m%rbp[0m),[34m%rax[0m
    5277:	48 8b 50 58          	[33mmov    [0m[35m0x58[0m([34m%rax[0m),[34m%rdx[0m
    527b:	48 8b 45 f8          	[33mmov    [0m[35m-[0m[35m0x8[0m([34m%rbp[0m),[34m%rax[0m
    527f:	48 01 c2             	[33madd    [0m[34m%rax[0m,[34m%rdx[0m
    5282:	48 8b 45 d8          	[33mmov    [0m[35m-[0m[35m0x28[0m([34m%rbp[0m),[34m%rax[0m
    5286:	48 8b 40 60          	[33mmov    [0m[35m0x60[0m([34m%rax[0m),[34m%rax[0m
    528a:	48 39 d0             	[33mcmp    [0m[34m%rdx[0m,[34m%rax[0m
    528d:	0f 83 a3 00 00 00    	[33mjae    [0m[35m5336[0m <[32meditor_save_as[0m[35m+0x[0m[35m146[0m>
    5293:	48 8b 45 d8          	[33mmov    [0m[35m-[0m[35m0x28[0m([34m%rbp[0m),[34m%rax[0m
    5297:	48 8b 40 60          	[33mmov    [0m[35m0x60[0m([34m%rax[0m),[34m%rax[0m
    529b:	48 85 c0             	[33mtest   [0m[34m%rax[0m,[34m%rax[0m
    529e:	75 22                	[33mjne    [0m[35m52c2[0m <[32meditor_save_as[0m[35m+0x[0m[35md2[0m>
    52a0:	48 8b 45 d8          	[33mmov    [0m[35m-[0m[35m0x28[0m([34m%rbp[0m),[34m%rax[0m
    52a4:	48 c7 40 60 00 01 00 	[33mmovq   [0m[35m$[0m[35m0x100[0m,[35m0x60[0m([34m%rax[0m)
    52ab:	00 
    52ac:	eb 14                	[33mjmp    [0m[35m52c2[0m <[32meditor_save_as[0m[35m+0x[0m[35md2[0m>
    52ae:	48 8b 45 d8          	[33mmov    [0m[35m-[0m[35m0x28[0m([34m%rbp[0m),[34m%rax[0m
    52b2:	48 8b 40 60          	[33mmov    [0m[35m0x60[0m([34m%rax[0m),[34m%rax[0m
    52b6:	48 8d 14 00          	[33mlea    [0m([34m%rax[0m,[34m%rax[0m,[35m1[0m),[34m%rdx[0m
    52ba:	48 8b 45 d8          	[33mmov    [0m[35m-[0m[35m0x28[0m([34m%rbp[0m),[34m%rax[0m
    52be:	48 89 50 60          	[33mmov    [0m[34m%rdx[0m,[35m0x60[0m([34m%rax[0m)
    52c2:	48 8b 45 d8          	[33mmov    [0m[35m-[0m[35m0x28[0m([34m%rbp[0m),[34m%rax[0m
    52c6:	48 8b 50 58          	[33mmov    [0m[35m0x58[0m([34m%rax[0m),[34m%rdx[0m
    52ca:	48 8b 45 f8          	[33mmov    [0m[35m-[0m[35m0x8[0m([34m%rbp[0m),[34m%rax[0m
    52ce:	48 01 c2             	[33madd    [0m[34m%rax[0m,[34m%rdx[0m
    52d1:	48 8b 45 d8          	[33mmov    [0m[35m-[0m[35m0x28[0m([34m%rbp[0m),[34m%rax[0m
    52d5:	48 8b 40 60          	[33mmov    [0m[35m0x60[0m([34m%rax[0m),[34m%rax[0m
    52d9:	48 39 d0             	[33mcmp    [0m[34m%rdx[0m,[34m%rax[0m
    52dc:	72 d0                	[33mjb     [0m[35m52ae[0m <[32meditor_save_as[0m[35m+0x[0m[35mbe[0m>
    52de:	48 8b 45 d8          	[33mmov    [0m[35m-[0m[35m0x28[0m([34m%rbp[0m),[34m%rax[0m
    52e2:	48 8b 50 60          	[33mmov    [0m[35m0x60[0m([34m%rax[0m),[34m%rdx[0m
    52e6:	48 8b 45 d8          	[33mmov    [0m[35m-[0m[35m0x28[0m([34m%rbp[0m),[34m%rax[0m
    52ea:	48 8b 40 50          	[33mmov    [0m[35m0x50[0m([34m%rax[0m),[34m%rax[0m
    52ee:	48 89 d6             	[33mmov    [0m[34m%rdx[0m,[34m%rsi[0m
    52f1:	48 89 c7             	[33mmov    [0m[34m%rax[0m,[34m%rdi[0m
    52f4:	e8 a7 e4 ff ff       	[33mcall   [0m[35m37a0[0m <[32mrealloc@plt[0m>
    52f9:	48 8b 55 d8          	[33mmov    [0m[35m-[0m[35m0x28[0m([34m%rbp[0m),[34m%rdx[0m
    52fd:	48 89 42 50          	[33mmov    [0m[34m%rax[0m,[35m0x50[0m([34m%rdx[0m)
    5301:	48 8b 45 d8          	[33mmov    [0m[35m-[0m[35m0x28[0m([34m%rbp[0m),[34m%rax[0m
    5305:	48 8b 40 50          	[33mmov    [0m[35m0x50[0m([34m%rax[0m),[34m%rax[0m
    5309:	48 85 c0             	[33mtest   [0m[34m%rax[0m,[34m%rax[0m
    530c:	75 28                	[33mjne    [0m[35m5336[0m <[32meditor_save_as[0m[35m+0x[0m[35m146[0m>
    530e:	48 8d 05 13 93 00 00 	[33mlea    [0m[35m0x9313[0m([34m%rip[0m),[34m%rax[0m        # e628 <__PRETTY_FUNCTION__.6>
    5315:	48 89 c1             	[33mmov    [0m[34m%rax[0m,[34m%rcx[0m
    5318:	ba 37 00 00 00       	[33mmov    [0m[35m$[0m[35m0x37[0m,[34m%edx[0m
    531d:	48 8d 05 5d 91 00 00 	[33mlea    [0m[35m0x915d[0m([34m%rip[0m),[34m%rax[0m        # e481 <_IO_stdin_used+0x481>
    5324:	48 89 c6             	[33mmov    [0m[34m%rax[0m,[34m%rsi[0m
    5327:	48 8d 05 62 91 00 00 	[33mlea    [0m[35m0x9162[0m([34m%rip[0m),[34m%rax[0m        # e490 <_IO_stdin_used+0x490>
    532e:	48 89 c7             	[33mmov    [0m[34m%rax[0m,[34m%rdi[0m
    5331:	e8 7a e1 ff ff       	[33mcall   [0m[35m34b0[0m <[32m__assert_fail@plt[0m>
    5336:	48 8b 45 d8          	[33mmov    [0m[35m-[0m[35m0x28[0m([34m%rbp[0m),[34m%rax[0m
    533a:	48 8b 50 50          	[33mmov    [0m[35m0x50[0m([34m%rax[0m),[34m%rdx[0m
    533e:	48 8b 45 d8          	[33mmov    [0m[35m-[0m[35m0x28[0m([34m%rbp[0m),[34m%rax[0m
    5342:	48 8b 40 58          	[33mmov    [0m[35m0x58[0m([34m%rax[0m),[34m%rax[0m
    5346:	48 8d 0c 02          	[33mlea    [0m([34m%rdx[0m,[34m%rax[0m,[35m1[0m),[34m%rcx[0m
    534a:	48 8b 55 f8          	[33mmov    [0m[35m-[0m[35m0x8[0m([34m%rbp[0m),[34m%rdx[0m
    534e:	48 8b 45 f0          	[33mmov    [0m[35m-[0m[35m0x10[0m([34m%rbp[0m),[34m%rax[0m
    5352:	48 89 c6             	[33mmov    [0m[34m%rax[0m,[34m%rsi[0m
    5355:	48 89 cf             	[33mmov    [0m[34m%rcx[0m,[34m%rdi[0m
    5358:	e8 a3 e4 ff ff       	[33mcall   [0m[35m3800[0m <[32mmemcpy@plt[0m>
    535d:	48 8b 45 d8          	[33mmov    [0m[35m-[0m[35m0x28[0m([34m%rbp[0m),[34m%rax[0m
    5361:	48 8b 50 58          	[33mmov    [0m[35m0x58[0m([34m%rax[0m),[34m%rdx[0m
    5365:	48 8b 45 f8          	[33mmov    [0m[35m-[0m[35m0x8[0m([34m%rbp[0m),[34m%rax[0m
    5369:	48 01 c2             	[33madd    [0m[34m%rax[0m,[34m%rdx[0m
    536c:	48 8b 45 d8          	[33mmov    [0m[35m-[0m[35m0x28[0m([34m%rbp[0m),[34m%rax[0m
    5370:	48 89 50 58          	[33mmov    [0m[34m%rdx[0m,[35m0x58[0m([34m%rax[0m)
    5374:	48 8b 45 d8          	[33mmov    [0m[35m-[0m[35m0x28[0m([34m%rbp[0m),[34m%rax[0m
    5378:	48 8b 40 58          	[33mmov    [0m[35m0x58[0m([34m%rax[0m),[34m%rax[0m
    537c:	48 8d 50 01          	[33mlea    [0m[35m0x1[0m([34m%rax[0m),[34m%rdx[0m
    5380:	48 8b 45 d8          	[33mmov    [0m[35m-[0m[35m0x28[0m([34m%rbp[0m),[34m%rax[0m
    5384:	48 8b 40 60          	[33mmov    [0m[35m0x60[0m([34m%rax[0m),[34m%rax[0m
    5388:	48 39 d0             	[33mcmp    [0m[34m%rdx[0m,[34m%rax[0m
    538b:	0f 83 a0 00 00 00    	[33mjae    [0m[35m5431[0m <[32meditor_save_as[0m[35m+0x[0m[35m241[0m>
    5391:	48 8b 45 d8          	[33mmov    [0m[35m-[0m[35m0x28[0m([34m%rbp[0m),[34m%rax[0m
    5395:	48 8b 40 60          	[33mmov    [0m[35m0x60[0m([34m%rax[0m),[34m%rax[0m
    5399:	48 85 c0             	[33mtest   [0m[34m%rax[0m,[34m%rax[0m
    539c:	75 22                	[33mjne    [0m[35m53c0[0m <[32meditor_save_as[0m[35m+0x[0m[35m1d0[0m>
    539e:	48 8b 45 d8          	[33mmov    [0m[35m-[0m[35m0x28[0m([34m%rbp[0m),[34m%rax[0m
    53a2:	48 c7 40 60 00 01 00 	[33mmovq   [0m[35m$[0m[35m0x100[0m,[35m0x60[0m([34m%rax[0m)
    53a9:	00 
    53aa:	eb 14                	[33mjmp    [0m[35m53c0[0m <[32meditor_save_as[0m[35m+0x[0m[35m1d0[0m>
    53ac:	48 8b 45 d8          	[33mmov    [0m[35m-[0m[35m0x28[0m([34m%rbp[0m),[34m%rax[0m
    53b0:	48 8b 40 60          	[33mmov    [0m[35m0x60[0m([34m%rax[0m),[34m%rax[0m
    53b4:	48 8d 14 00          	[33mlea    [0m([34m%rax[0m,[34m%rax[0m,[35m1[0m),[34m%rdx[0m
    53b8:	48 8b 45 d8          	[33mmov    [0m[35m-[0m[35m0x28[0m([34m%rbp[0m),[34m%rax[0m
    53bc:	48 89 50 60          	[33mmov    [0m[34m%rdx[0m,[35m0x60[0m([34m%rax[0m)
    53c0:	48 8b 45 d8          	[33mmov    [0m[35m-[0m[35m0x28[0m([34m%rbp[0m),[34m%rax[0m
    53c4:	48 8b 40 58          	[33mmov    [0m[35m0x58[0m([34m%rax[0m),[34m%rax[0m
    53c8:	48 8d 50 01          	[33mlea    [0m[35m0x1[0m([34m%rax[0m),[34m%rdx[0m
    53cc:	48 8b 45 d8          	[33mmov    [0m[35m-[0m[35m0x28[0m([34m%rbp[0m),[34m%rax[0m
    53d0:	48 8b 40 60          	[33mmov    [0m[35m0x60[0m([34m%rax[0m),[34m%rax[0m
    53d4:	48 39 d0             	[33mcmp    [0m[34m%rdx[0m,[34m%rax[0m
    53d7:	72 d3                	[33mjb     [0m[35m53ac[0m <[32meditor_save_as[0m[35m+0x[0m[35m1bc[0m>
    53d9:	48 8b 45 d8          	[33mmov    [0m[35m-[0m[35m0x28[0m([34m%rbp[0m),[34m%rax[0m
    53dd:	48 8b 50 60          	[33mmov    [0m[35m0x60[0m([34m%rax[0m),[34m%rdx[0m
    53e1:	48 8b 45 d8          	[33mmov    [0m[35m-[0m[35m0x28[0m([34m%rbp[0m),[34m%rax[0m
    53e5:	48 8b 40 50          	[33mmov    [0m[35m0x50[0m([34m%rax[0m),[34m%rax[0m
    53e9:	48 89 d6             	[33mmov    [0m[34m%rdx[0m,[34m%rsi[0m
    53ec:	48 89 c7             	[33mmov    [0m[34m%rax[0m,[34m%rdi[0m
    53ef:	e8 ac e3 ff ff       	[33mcall   [0m[35m37a0[0m <[32mrealloc@plt[0m>
    53f4:	48 8b 55 d8          	[33mmov    [0m[35m-[0m[35m0x28[0m([34m%rbp[0m),[34m%rdx[0m
    53f8:	48 89 42 50          	[33mmov    [0m[34m%rax[0m,[35m0x50[0m([34m%rdx[0m)
    53fc:	48 8b 45 d8          	[33mmov    [0m[35m-[0m[35m0x28[0m([34m%rbp[0m),[34m%rax[0m
    5400:	48 8b 40 50          	[33mmov    [0m[35m0x50[0m([34m%rax[0m),[34m%rax[0m
    5404:	48 85 c0             	[33mtest   [0m[34m%rax[0m,[34m%rax[0m
    5407:	75 28                	[33mjne    [0m[35m5431[0m <[32meditor_save_as[0m[35m+0x[0m[35m241[0m>
    5409:	48 8d 05 18 92 00 00 	[33mlea    [0m[35m0x9218[0m([34m%rip[0m),[34m%rax[0m        # e628 <__PRETTY_FUNCTION__.6>
    5410:	48 89 c1             	[33mmov    [0m[34m%rax[0m,[34m%rcx[0m
    5413:	ba 38 00 00 00       	[33mmov    [0m[35m$[0m[35m0x38[0m,[34m%edx[0m
    5418:	48 8d 05 62 90 00 00 	[33mlea    [0m[35m0x9062[0m([34m%rip[0m),[34m%rax[0m        # e481 <_IO_stdin_used+0x481>
    541f:	48 89 c6             	[33mmov    [0m[34m%rax[0m,[34m%rsi[0m
    5422:	48 8d 05 67 90 00 00 	[33mlea    [0m[35m0x9067[0m([34m%rip[0m),[34m%rax[0m        # e490 <_IO_stdin_used+0x490>
    5429:	48 89 c7             	[33mmov    [0m[34m%rax[0m,[34m%rdi[0m
    542c:	e8 7f e0 ff ff       	[33mcall   [0m[35m34b0[0m <[32m__assert_fail@plt[0m>
    5431:	48 8b 45 d8          	[33mmov    [0m[35m-[0m[35m0x28[0m([34m%rbp[0m),[34m%rax[0m
    5435:	48 8b 50 50          	[33mmov    [0m[35m0x50[0m([34m%rax[0m),[34m%rdx[0m
    5439:	48 8b 45 d8          	[33mmov    [0m[35m-[0m[35m0x28[0m([34m%rbp[0m),[34m%rax[0m
    543d:	48 8b 40 58          	[33mmov    [0m[35m0x58[0m([34m%rax[0m),[34m%rax[0m
    5441:	48 01 d0             	[33madd    [0m[34m%rdx[0m,[34m%rax[0m
    5444:	ba 01 00 00 00       	[33mmov    [0m[35m$[0m[35m0x1[0m,[34m%edx[0m
    5449:	48 8d 0d 75 90 00 00 	[33mlea    [0m[35m0x9075[0m([34m%rip[0m),[34m%rcx[0m        # e4c5 <_IO_stdin_used+0x4c5>
    5450:	48 89 ce             	[33mmov    [0m[34m%rcx[0m,[34m%rsi[0m
    5453:	48 89 c7             	[33mmov    [0m[34m%rax[0m,[34m%rdi[0m
    5456:	e8 a5 e3 ff ff       	[33mcall   [0m[35m3800[0m <[32mmemcpy@plt[0m>
    545b:	48 8b 45 d8          	[33mmov    [0m[35m-[0m[35m0x28[0m([34m%rbp[0m),[34m%rax[0m
    545f:	48 8b 40 58          	[33mmov    [0m[35m0x58[0m([34m%rax[0m),[34m%rax[0m
    5463:	48 8d 50 01          	[33mlea    [0m[35m0x1[0m([34m%rax[0m),[34m%rdx[0m
    5467:	48 8b 45 d8          	[33mmov    [0m[35m-[0m[35m0x28[0m([34m%rbp[0m),[34m%rax[0m
    546b:	48 89 50 58          	[33mmov    [0m[34m%rdx[0m,[35m0x58[0m([34m%rax[0m)
    546f:	b8 00 00 00 00       	[33mmov    [0m[35m$[0m[35m0x0[0m,[34m%eax[0m
    5474:	c9                   	[33mleave[0m
    5475:	c3                   	[33mret[0m

0000000000005476 <editor_save>:
    5476:	f3 0f 1e fa          	[33mendbr64[0m
    547a:	55                   	[33mpush   [0m[34m%rbp[0m
    547b:	48 89 e5             	[33mmov    [0m[34m%rsp[0m,[34m%rbp[0m
    547e:	48 83 ec 10          	[33msub    [0m[35m$[0m[35m0x10[0m,[34m%rsp[0m
    5482:	48 89 7d f8          	[33mmov    [0m[34m%rdi[0m,[35m-[0m[35m0x8[0m([34m%rbp[0m)
    5486:	48 8b 45 f8          	[33mmov    [0m[35m-[0m[35m0x8[0m([34m%rbp[0m),[34m%rax[0m
    548a:	48 8b 40 58          	[33mmov    [0m[35m0x58[0m([34m%rax[0m),[34m%rax[0m
    548e:	48 85 c0             	[33mtest   [0m[34m%rax[0m,[34m%rax[0m
    5491:	75 28                	[33mjne    [0m[35m54bb[0m <[32meditor_save[0m[35m+0x[0m[35m45[0m>
    5493:	48 8d 05 9e 91 00 00 	[33mlea    [0m[35m0x919e[0m([34m%rip[0m),[34m%rax[0m        # e638 <__PRETTY_FUNCTION__.5>
    549a:	48 89 c1             	[33mmov    [0m[34m%rax[0m,[34m%rcx[0m
    549d:	ba 3e 00 00 00       	[33mmov    [0m[35m$[0m[35m0x3e[0m,[34m%edx[0m
    54a2:	48 8d 05 d8 8f 00 00 	[33mlea    [0m[35m0x8fd8[0m([34m%rip[0m),[34m%rax[0m        # e481 <_IO_stdin_used+0x481>
    54a9:	48 89 c6             	[33mmov    [0m[34m%rax[0m,[34m%rsi[0m
    54ac:	48 8d 05 13 90 00 00 	[33mlea    [0m[35m0x9013[0m([34m%rip[0m),[34m%rax[0m        # e4c6 <_IO_stdin_used+0x4c6>
    54b3:	48 89 c7             	[33mmov    [0m[34m%rax[0m,[34m%rdi[0m
    54b6:	e8 f5 df ff ff       	[33mcall   [0m[35m34b0[0m <[32m__assert_fail@plt[0m>
    54bb:	48 8b 45 f8          	[33mmov    [0m[35m-[0m[35m0x8[0m([34m%rbp[0m),[34m%rax[0m
    54bf:	48 8b 40 50          	[33mmov    [0m[35m0x50[0m([34m%rax[0m),[34m%rax[0m
    54c3:	48 89 c6             	[33mmov    [0m[34m%rax[0m,[34m%rsi[0m
    54c6:	48 8d 05 a3 8f 00 00 	[33mlea    [0m[35m0x8fa3[0m([34m%rip[0m),[34m%rax[0m        # e470 <_IO_stdin_used+0x470>
    54cd:	48 89 c7             	[33mmov    [0m[34m%rax[0m,[34m%rdi[0m
    54d0:	b8 00 00 00 00       	[33mmov    [0m[35m$[0m[35m0x0[0m,[34m%eax[0m
    54d5:	e8 66 df ff ff       	[33mcall   [0m[35m3440[0m <[32mprintf@plt[0m>
    54da:	48 8b 45 f8          	[33mmov    [0m[35m-[0m[35m0x8[0m([34m%rbp[0m),[34m%rax[0m
    54de:	48 8b 50 10          	[33mmov    [0m[35m0x10[0m([34m%rax[0m),[34m%rdx[0m
    54e2:	48 8b 45 f8          	[33mmov    [0m[35m-[0m[35m0x8[0m([34m%rbp[0m),[34m%rax[0m
    54e6:	48 8b 48 08          	[33mmov    [0m[35m0x8[0m([34m%rax[0m),[34m%rcx[0m
    54ea:	48 8b 45 f8          	[33mmov    [0m[35m-[0m[35m0x8[0m([34m%rbp[0m),[34m%rax[0m
    54ee:	48 8b 40 50          	[33mmov    [0m[35m0x50[0m([34m%rax[0m),[34m%rax[0m
    54f2:	48 89 ce             	[33mmov    [0m[34m%rcx[0m,[34m%rsi[0m
    54f5:	48 89 c7             	[33mmov    [0m[34m%rax[0m,[34m%rdi[0m
    54f8:	e8 e4 6c 00 00       	[33mcall   [0m[35mc1e1[0m <[32mwrite_entire_file[0m>
    54fd:	c9                   	[33mleave[0m
    54fe:	c3                   	[33mret[0m

00000000000054ff <editor_load_from_file>:
    54ff:	f3 0f 1e fa          	[33mendbr64[0m
    5503:	55                   	[33mpush   [0m[34m%rbp[0m
    5504:	48 89 e5             	[33mmov    [0m[34m%rsp[0m,[34m%rbp[0m
    5507:	48 83 ec 30          	[33msub    [0m[35m$[0m[35m0x30[0m,[34m%rsp[0m
    550b:	48 89 7d d8          	[33mmov    [0m[34m%rdi[0m,[35m-[0m[35m0x28[0m([34m%rbp[0m)
    550f:	48 89 75 d0          	[33mmov    [0m[34m%rsi[0m,[35m-[0m[35m0x30[0m([34m%rbp[0m)
    5513:	48 8b 45 d0          	[33mmov    [0m[35m-[0m[35m0x30[0m([34m%rbp[0m),[34m%rax[0m
    5517:	48 89 c6             	[33mmov    [0m[34m%rax[0m,[34m%rsi[0m
    551a:	48 8d 05 bc 8f 00 00 	[33mlea    [0m[35m0x8fbc[0m([34m%rip[0m),[34m%rax[0m        # e4dd <_IO_stdin_used+0x4dd>
    5521:	48 89 c7             	[33mmov    [0m[34m%rax[0m,[34m%rdi[0m
    5524:	b8 00 00 00 00       	[33mmov    [0m[35m$[0m[35m0x0[0m,[34m%eax[0m
    5529:	e8 12 df ff ff       	[33mcall   [0m[35m3440[0m <[32mprintf@plt[0m>
    552e:	48 8b 45 d8          	[33mmov    [0m[35m-[0m[35m0x28[0m([34m%rbp[0m),[34m%rax[0m
    5532:	48 c7 40 10 00 00 00 	[33mmovq   [0m[35m$[0m[35m0x0[0m,[35m0x10[0m([34m%rax[0m)
    5539:	00 
    553a:	48 8b 45 d8          	[33mmov    [0m[35m-[0m[35m0x28[0m([34m%rbp[0m),[34m%rax[0m
    553e:	48 8d 50 08          	[33mlea    [0m[35m0x8[0m([34m%rax[0m),[34m%rdx[0m
    5542:	48 8b 45 d0          	[33mmov    [0m[35m-[0m[35m0x30[0m([34m%rbp[0m),[34m%rax[0m
    5546:	48 89 d6             	[33mmov    [0m[34m%rdx[0m,[34m%rsi[0m
    5549:	48 89 c7             	[33mmov    [0m[34m%rax[0m,[34m%rdi[0m
    554c:	e8 e0 6d 00 00       	[33mcall   [0m[35mc331[0m <[32mread_entire_file[0m>
    5551:	89 45 ec             	[33mmov    [0m[34m%eax[0m,[35m-[0m[35m0x14[0m([34m%rbp[0m)
    5554:	83 7d ec 00          	[33mcmpl   [0m[35m$[0m[35m0x0[0m,[35m-[0m[35m0x14[0m([34m%rbp[0m)
    5558:	74 08                	[33mje     [0m[35m5562[0m <[32meditor_load_from_file[0m[35m+0x[0m[35m63[0m>
    555a:	8b 45 ec             	[33mmov    [0m[35m-[0m[35m0x14[0m([34m%rbp[0m),[34m%eax[0m
    555d:	e9 40 02 00 00       	[33mjmp    [0m[35m57a2[0m <[32meditor_load_from_file[0m[35m+0x[0m[35m2a3[0m>
    5562:	48 8b 45 d8          	[33mmov    [0m[35m-[0m[35m0x28[0m([34m%rbp[0m),[34m%rax[0m
    5566:	48 c7 80 98 00 00 00 	[33mmovq   [0m[35m$[0m[35m0x0[0m,[35m0x98[0m([34m%rax[0m)
    556d:	00 00 00 00 
    5571:	48 8b 45 d8          	[33mmov    [0m[35m-[0m[35m0x28[0m([34m%rbp[0m),[34m%rax[0m
    5575:	48 89 c7             	[33mmov    [0m[34m%rax[0m,[34m%rdi[0m
    5578:	e8 8d 0a 00 00       	[33mcall   [0m[35m600a[0m <[32meditor_retokenize[0m>
    557d:	48 8b 45 d8          	[33mmov    [0m[35m-[0m[35m0x28[0m([34m%rbp[0m),[34m%rax[0m
    5581:	48 c7 40 58 00 00 00 	[33mmovq   [0m[35m$[0m[35m0x0[0m,[35m0x58[0m([34m%rax[0m)
    5588:	00 
    5589:	48 8b 45 d0          	[33mmov    [0m[35m-[0m[35m0x30[0m([34m%rbp[0m),[34m%rax[0m
    558d:	48 89 45 f0          	[33mmov    [0m[34m%rax[0m,[35m-[0m[35m0x10[0m([34m%rbp[0m)
    5591:	48 8b 45 f0          	[33mmov    [0m[35m-[0m[35m0x10[0m([34m%rbp[0m),[34m%rax[0m
    5595:	48 89 c7             	[33mmov    [0m[34m%rax[0m,[34m%rdi[0m
    5598:	e8 d3 df ff ff       	[33mcall   [0m[35m3570[0m <[32mstrlen@plt[0m>
    559d:	48 89 45 f8          	[33mmov    [0m[34m%rax[0m,[35m-[0m[35m0x8[0m([34m%rbp[0m)
    55a1:	48 8b 45 d8          	[33mmov    [0m[35m-[0m[35m0x28[0m([34m%rbp[0m),[34m%rax[0m
    55a5:	48 8b 50 58          	[33mmov    [0m[35m0x58[0m([34m%rax[0m),[34m%rdx[0m
    55a9:	48 8b 45 f8          	[33mmov    [0m[35m-[0m[35m0x8[0m([34m%rbp[0m),[34m%rax[0m
    55ad:	48 01 c2             	[33madd    [0m[34m%rax[0m,[34m%rdx[0m
    55b0:	48 8b 45 d8          	[33mmov    [0m[35m-[0m[35m0x28[0m([34m%rbp[0m),[34m%rax[0m
    55b4:	48 8b 40 60          	[33mmov    [0m[35m0x60[0m([34m%rax[0m),[34m%rax[0m
    55b8:	48 39 d0             	[33mcmp    [0m[34m%rdx[0m,[34m%rax[0m
    55bb:	0f 83 a3 00 00 00    	[33mjae    [0m[35m5664[0m <[32meditor_load_from_file[0m[35m+0x[0m[35m165[0m>
    55c1:	48 8b 45 d8          	[33mmov    [0m[35m-[0m[35m0x28[0m([34m%rbp[0m),[34m%rax[0m
    55c5:	48 8b 40 60          	[33mmov    [0m[35m0x60[0m([34m%rax[0m),[34m%rax[0m
    55c9:	48 85 c0             	[33mtest   [0m[34m%rax[0m,[34m%rax[0m
    55cc:	75 22                	[33mjne    [0m[35m55f0[0m <[32meditor_load_from_file[0m[35m+0x[0m[35mf1[0m>
    55ce:	48 8b 45 d8          	[33mmov    [0m[35m-[0m[35m0x28[0m([34m%rbp[0m),[34m%rax[0m
    55d2:	48 c7 40 60 00 01 00 	[33mmovq   [0m[35m$[0m[35m0x100[0m,[35m0x60[0m([34m%rax[0m)
    55d9:	00 
    55da:	eb 14                	[33mjmp    [0m[35m55f0[0m <[32meditor_load_from_file[0m[35m+0x[0m[35mf1[0m>
    55dc:	48 8b 45 d8          	[33mmov    [0m[35m-[0m[35m0x28[0m([34m%rbp[0m),[34m%rax[0m
    55e0:	48 8b 40 60          	[33mmov    [0m[35m0x60[0m([34m%rax[0m),[34m%rax[0m
    55e4:	48 8d 14 00          	[33mlea    [0m([34m%rax[0m,[34m%rax[0m,[35m1[0m),[34m%rdx[0m
    55e8:	48 8b 45 d8          	[33mmov    [0m[35m-[0m[35m0x28[0m([34m%rbp[0m),[34m%rax[0m
    55ec:	48 89 50 60          	[33mmov    [0m[34m%rdx[0m,[35m0x60[0m([34m%rax[0m)
    55f0:	48 8b 45 d8          	[33mmov    [0m[35m-[0m[35m0x28[0m([34m%rbp[0m),[34m%rax[0m
    55f4:	48 8b 50 58          	[33mmov    [0m[35m0x58[0m([34m%rax[0m),[34m%rdx[0m
    55f8:	48 8b 45 f8          	[33mmov    [0m[35m-[0m[35m0x8[0m([34m%rbp[0m),[34m%rax[0m
    55fc:	48 01 c2             	[33madd    [0m[34m%rax[0m,[34m%rdx[0m
    55ff:	48 8b 45 d8          	[33mmov    [0m[35m-[0m[35m0x28[0m([34m%rbp[0m),[34m%rax[0m
    5603:	48 8b 40 60          	[33mmov    [0m[35m0x60[0m([34m%rax[0m),[34m%rax[0m
    5607:	48 39 d0             	[33mcmp    [0m[34m%rdx[0m,[34m%rax[0m
    560a:	72 d0                	[33mjb     [0m[35m55dc[0m <[32meditor_load_from_file[0m[35m+0x[0m[35mdd[0m>
    560c:	48 8b 45 d8          	[33mmov    [0m[35m-[0m[35m0x28[0m([34m%rbp[0m),[34m%rax[0m
    5610:	48 8b 50 60          	[33mmov    [0m[35m0x60[0m([34m%rax[0m),[34m%rdx[0m
    5614:	48 8b 45 d8          	[33mmov    [0m[35m-[0m[35m0x28[0m([34m%rbp[0m),[34m%rax[0m
    5618:	48 8b 40 50          	[33mmov    [0m[35m0x50[0m([34m%rax[0m),[34m%rax[0m
    561c:	48 89 d6             	[33mmov    [0m[34m%rdx[0m,[34m%rsi[0m
    561f:	48 89 c7             	[33mmov    [0m[34m%rax[0m,[34m%rdi[0m
    5622:	e8 79 e1 ff ff       	[33mcall   [0m[35m37a0[0m <[32mrealloc@plt[0m>
    5627:	48 8b 55 d8          	[33mmov    [0m[35m-[0m[35m0x28[0m([34m%rbp[0m),[34m%rdx[0m
    562b:	48 89 42 50          	[33mmov    [0m[34m%rax[0m,[35m0x50[0m([34m%rdx[0m)
    562f:	48 8b 45 d8          	[33mmov    [0m[35m-[0m[35m0x28[0m([34m%rbp[0m),[34m%rax[0m
    5633:	48 8b 40 50          	[33mmov    [0m[35m0x50[0m([34m%rax[0m),[34m%rax[0m
    5637:	48 85 c0             	[33mtest   [0m[34m%rax[0m,[34m%rax[0m
    563a:	75 28                	[33mjne    [0m[35m5664[0m <[32meditor_load_from_file[0m[35m+0x[0m[35m165[0m>
    563c:	48 8d 05 0d 90 00 00 	[33mlea    [0m[35m0x900d[0m([34m%rip[0m),[34m%rax[0m        # e650 <__PRETTY_FUNCTION__.4>
    5643:	48 89 c1             	[33mmov    [0m[34m%rax[0m,[34m%rcx[0m
    5646:	ba 50 00 00 00       	[33mmov    [0m[35m$[0m[35m0x50[0m,[34m%edx[0m
    564b:	48 8d 05 2f 8e 00 00 	[33mlea    [0m[35m0x8e2f[0m([34m%rip[0m),[34m%rax[0m        # e481 <_IO_stdin_used+0x481>
    5652:	48 89 c6             	[33mmov    [0m[34m%rax[0m,[34m%rsi[0m
    5655:	48 8d 05 34 8e 00 00 	[33mlea    [0m[35m0x8e34[0m([34m%rip[0m),[34m%rax[0m        # e490 <_IO_stdin_used+0x490>
    565c:	48 89 c7             	[33mmov    [0m[34m%rax[0m,[34m%rdi[0m
    565f:	e8 4c de ff ff       	[33mcall   [0m[35m34b0[0m <[32m__assert_fail@plt[0m>
    5664:	48 8b 45 d8          	[33mmov    [0m[35m-[0m[35m0x28[0m([34m%rbp[0m),[34m%rax[0m
    5668:	48 8b 50 50          	[33mmov    [0m[35m0x50[0m([34m%rax[0m),[34m%rdx[0m
    566c:	48 8b 45 d8          	[33mmov    [0m[35m-[0m[35m0x28[0m([34m%rbp[0m),[34m%rax[0m
    5670:	48 8b 40 58          	[33mmov    [0m[35m0x58[0m([34m%rax[0m),[34m%rax[0m
    5674:	48 8d 0c 02          	[33mlea    [0m([34m%rdx[0m,[34m%rax[0m,[35m1[0m),[34m%rcx[0m
    5678:	48 8b 55 f8          	[33mmov    [0m[35m-[0m[35m0x8[0m([34m%rbp[0m),[34m%rdx[0m
    567c:	48 8b 45 f0          	[33mmov    [0m[35m-[0m[35m0x10[0m([34m%rbp[0m),[34m%rax[0m
    5680:	48 89 c6             	[33mmov    [0m[34m%rax[0m,[34m%rsi[0m
    5683:	48 89 cf             	[33mmov    [0m[34m%rcx[0m,[34m%rdi[0m
    5686:	e8 75 e1 ff ff       	[33mcall   [0m[35m3800[0m <[32mmemcpy@plt[0m>
    568b:	48 8b 45 d8          	[33mmov    [0m[35m-[0m[35m0x28[0m([34m%rbp[0m),[34m%rax[0m
    568f:	48 8b 50 58          	[33mmov    [0m[35m0x58[0m([34m%rax[0m),[34m%rdx[0m
    5693:	48 8b 45 f8          	[33mmov    [0m[35m-[0m[35m0x8[0m([34m%rbp[0m),[34m%rax[0m
    5697:	48 01 c2             	[33madd    [0m[34m%rax[0m,[34m%rdx[0m
    569a:	48 8b 45 d8          	[33mmov    [0m[35m-[0m[35m0x28[0m([34m%rbp[0m),[34m%rax[0m
    569e:	48 89 50 58          	[33mmov    [0m[34m%rdx[0m,[35m0x58[0m([34m%rax[0m)
    56a2:	48 8b 45 d8          	[33mmov    [0m[35m-[0m[35m0x28[0m([34m%rbp[0m),[34m%rax[0m
    56a6:	48 8b 40 58          	[33mmov    [0m[35m0x58[0m([34m%rax[0m),[34m%rax[0m
    56aa:	48 8d 50 01          	[33mlea    [0m[35m0x1[0m([34m%rax[0m),[34m%rdx[0m
    56ae:	48 8b 45 d8          	[33mmov    [0m[35m-[0m[35m0x28[0m([34m%rbp[0m),[34m%rax[0m
    56b2:	48 8b 40 60          	[33mmov    [0m[35m0x60[0m([34m%rax[0m),[34m%rax[0m
    56b6:	48 39 d0             	[33mcmp    [0m[34m%rdx[0m,[34m%rax[0m
    56b9:	0f 83 a0 00 00 00    	[33mjae    [0m[35m575f[0m <[32meditor_load_from_file[0m[35m+0x[0m[35m260[0m>
    56bf:	48 8b 45 d8          	[33mmov    [0m[35m-[0m[35m0x28[0m([34m%rbp[0m),[34m%rax[0m
    56c3:	48 8b 40 60          	[33mmov    [0m[35m0x60[0m([34m%rax[0m),[34m%rax[0m
    56c7:	48 85 c0             	[33mtest   [0m[34m%rax[0m,[34m%rax[0m
    56ca:	75 22                	[33mjne    [0m[35m56ee[0m <[32meditor_load_from_file[0m[35m+0x[0m[35m1ef[0m>
    56cc:	48 8b 45 d8          	[33mmov    [0m[35m-[0m[35m0x28[0m([34m%rbp[0m),[34m%rax[0m
    56d0:	48 c7 40 60 00 01 00 	[33mmovq   [0m[35m$[0m[35m0x100[0m,[35m0x60[0m([34m%rax[0m)
    56d7:	00 
    56d8:	eb 14                	[33mjmp    [0m[35m56ee[0m <[32meditor_load_from_file[0m[35m+0x[0m[35m1ef[0m>
    56da:	48 8b 45 d8          	[33mmov    [0m[35m-[0m[35m0x28[0m([34m%rbp[0m),[34m%rax[0m
    56de:	48 8b 40 60          	[33mmov    [0m[35m0x60[0m([34m%rax[0m),[34m%rax[0m
    56e2:	48 8d 14 00          	[33mlea    [0m([34m%rax[0m,[34m%rax[0m,[35m1[0m),[34m%rdx[0m
    56e6:	48 8b 45 d8          	[33mmov    [0m[35m-[0m[35m0x28[0m([34m%rbp[0m),[34m%rax[0m
    56ea:	48 89 50 60          	[33mmov    [0m[34m%rdx[0m,[35m0x60[0m([34m%rax[0m)
    56ee:	48 8b 45 d8          	[33mmov    [0m[35m-[0m[35m0x28[0m([34m%rbp[0m),[34m%rax[0m
    56f2:	48 8b 40 58          	[33mmov    [0m[35m0x58[0m([34m%rax[0m),[34m%rax[0m
    56f6:	48 8d 50 01          	[33mlea    [0m[35m0x1[0m([34m%rax[0m),[34m%rdx[0m
    56fa:	48 8b 45 d8          	[33mmov    [0m[35m-[0m[35m0x28[0m([34m%rbp[0m),[34m%rax[0m
    56fe:	48 8b 40 60          	[33mmov    [0m[35m0x60[0m([34m%rax[0m),[34m%rax[0m
    5702:	48 39 d0             	[33mcmp    [0m[34m%rdx[0m,[34m%rax[0m
    5705:	72 d3                	[33mjb     [0m[35m56da[0m <[32meditor_load_from_file[0m[35m+0x[0m[35m1db[0m>
    5707:	48 8b 45 d8          	[33mmov    [0m[35m-[0m[35m0x28[0m([34m%rbp[0m),[34m%rax[0m
    570b:	48 8b 50 60          	[33mmov    [0m[35m0x60[0m([34m%rax[0m),[34m%rdx[0m
    570f:	48 8b 45 d8          	[33mmov    [0m[35m-[0m[35m0x28[0m([34m%rbp[0m),[34m%rax[0m
    5713:	48 8b 40 50          	[33mmov    [0m[35m0x50[0m([34m%rax[0m),[34m%rax[0m
    5717:	48 89 d6             	[33mmov    [0m[34m%rdx[0m,[34m%rsi[0m
    571a:	48 89 c7             	[33mmov    [0m[34m%rax[0m,[34m%rdi[0m
    571d:	e8 7e e0 ff ff       	[33mcall   [0m[35m37a0[0m <[32mrealloc@plt[0m>
    5722:	48 8b 55 d8          	[33mmov    [0m[35m-[0m[35m0x28[0m([34m%rbp[0m),[34m%rdx[0m
    5726:	48 89 42 50          	[33mmov    [0m[34m%rax[0m,[35m0x50[0m([34m%rdx[0m)
    572a:	48 8b 45 d8          	[33mmov    [0m[35m-[0m[35m0x28[0m([34m%rbp[0m),[34m%rax[0m
    572e:	48 8b 40 50          	[33mmov    [0m[35m0x50[0m([34m%rax[0m),[34m%rax[0m
    5732:	48 85 c0             	[33mtest   [0m[34m%rax[0m,[34m%rax[0m
    5735:	75 28                	[33mjne    [0m[35m575f[0m <[32meditor_load_from_file[0m[35m+0x[0m[35m260[0m>
    5737:	48 8d 05 12 8f 00 00 	[33mlea    [0m[35m0x8f12[0m([34m%rip[0m),[34m%rax[0m        # e650 <__PRETTY_FUNCTION__.4>
    573e:	48 89 c1             	[33mmov    [0m[34m%rax[0m,[34m%rcx[0m
    5741:	ba 51 00 00 00       	[33mmov    [0m[35m$[0m[35m0x51[0m,[34m%edx[0m
    5746:	48 8d 05 34 8d 00 00 	[33mlea    [0m[35m0x8d34[0m([34m%rip[0m),[34m%rax[0m        # e481 <_IO_stdin_used+0x481>
    574d:	48 89 c6             	[33mmov    [0m[34m%rax[0m,[34m%rsi[0m
    5750:	48 8d 05 39 8d 00 00 	[33mlea    [0m[35m0x8d39[0m([34m%rip[0m),[34m%rax[0m        # e490 <_IO_stdin_used+0x490>
    5757:	48 89 c7             	[33mmov    [0m[34m%rax[0m,[34m%rdi[0m
    575a:	e8 51 dd ff ff       	[33mcall   [0m[35m34b0[0m <[32m__assert_fail@plt[0m>
    575f:	48 8b 45 d8          	[33mmov    [0m[35m-[0m[35m0x28[0m([34m%rbp[0m),[34m%rax[0m
    5763:	48 8b 50 50          	[33mmov    [0m[35m0x50[0m([34m%rax[0m),[34m%rdx[0m
    5767:	48 8b 45 d8          	[33mmov    [0m[35m-[0m[35m0x28[0m([34m%rbp[0m),[34m%rax[0m
    576b:	48 8b 40 58          	[33mmov    [0m[35m0x58[0m([34m%rax[0m),[34m%rax[0m
    576f:	48 01 d0             	[33madd    [0m[34m%rdx[0m,[34m%rax[0m
    5772:	ba 01 00 00 00       	[33mmov    [0m[35m$[0m[35m0x1[0m,[34m%edx[0m
    5777:	48 8d 0d 47 8d 00 00 	[33mlea    [0m[35m0x8d47[0m([34m%rip[0m),[34m%rcx[0m        # e4c5 <_IO_stdin_used+0x4c5>
    577e:	48 89 ce             	[33mmov    [0m[34m%rcx[0m,[34m%rsi[0m
    5781:	48 89 c7             	[33mmov    [0m[34m%rax[0m,[34m%rdi[0m
    5784:	e8 77 e0 ff ff       	[33mcall   [0m[35m3800[0m <[32mmemcpy@plt[0m>
    5789:	48 8b 45 d8          	[33mmov    [0m[35m-[0m[35m0x28[0m([34m%rbp[0m),[34m%rax[0m
    578d:	48 8b 40 58          	[33mmov    [0m[35m0x58[0m([34m%rax[0m),[34m%rax[0m
    5791:	48 8d 50 01          	[33mlea    [0m[35m0x1[0m([34m%rax[0m),[34m%rdx[0m
    5795:	48 8b 45 d8          	[33mmov    [0m[35m-[0m[35m0x28[0m([34m%rbp[0m),[34m%rax[0m
    5799:	48 89 50 58          	[33mmov    [0m[34m%rdx[0m,[35m0x58[0m([34m%rax[0m)
    579d:	b8 00 00 00 00       	[33mmov    [0m[35m$[0m[35m0x0[0m,[34m%eax[0m
    57a2:	c9                   	[33mleave[0m
    57a3:	c3                   	[33mret[0m

00000000000057a4 <editor_cursor_row>:
    57a4:	f3 0f 1e fa          	[33mendbr64[0m
    57a8:	55                   	[33mpush   [0m[34m%rbp[0m
    57a9:	48 89 e5             	[33mmov    [0m[34m%rsp[0m,[34m%rbp[0m
    57ac:	48 83 ec 30          	[33msub    [0m[35m$[0m[35m0x30[0m,[34m%rsp[0m
    57b0:	48 89 7d d8          	[33mmov    [0m[34m%rdi[0m,[35m-[0m[35m0x28[0m([34m%rbp[0m)
    57b4:	48 8b 45 d8          	[33mmov    [0m[35m-[0m[35m0x28[0m([34m%rbp[0m),[34m%rax[0m
    57b8:	48 8b 40 28          	[33mmov    [0m[35m0x28[0m([34m%rax[0m),[34m%rax[0m
    57bc:	48 85 c0             	[33mtest   [0m[34m%rax[0m,[34m%rax[0m
    57bf:	75 28                	[33mjne    [0m[35m57e9[0m <[32meditor_cursor_row[0m[35m+0x[0m[35m45[0m>
    57c1:	48 8d 05 a8 8e 00 00 	[33mlea    [0m[35m0x8ea8[0m([34m%rip[0m),[34m%rax[0m        # e670 <__PRETTY_FUNCTION__.3>
    57c8:	48 89 c1             	[33mmov    [0m[34m%rax[0m,[34m%rcx[0m
    57cb:	ba 58 00 00 00       	[33mmov    [0m[35m$[0m[35m0x58[0m,[34m%edx[0m
    57d0:	48 8d 05 aa 8c 00 00 	[33mlea    [0m[35m0x8caa[0m([34m%rip[0m),[34m%rax[0m        # e481 <_IO_stdin_used+0x481>
    57d7:	48 89 c6             	[33mmov    [0m[34m%rax[0m,[34m%rsi[0m
    57da:	48 8d 05 08 8d 00 00 	[33mlea    [0m[35m0x8d08[0m([34m%rip[0m),[34m%rax[0m        # e4e9 <_IO_stdin_used+0x4e9>
    57e1:	48 89 c7             	[33mmov    [0m[34m%rax[0m,[34m%rdi[0m
    57e4:	e8 c7 dc ff ff       	[33mcall   [0m[35m34b0[0m <[32m__assert_fail@plt[0m>
    57e9:	48 c7 45 e8 00 00 00 	[33mmovq   [0m[35m$[0m[35m0x0[0m,[35m-[0m[35m0x18[0m([34m%rbp[0m)
    57f0:	00 
    57f1:	eb 55                	[33mjmp    [0m[35m5848[0m <[32meditor_cursor_row[0m[35m+0x[0m[35ma4[0m>
    57f3:	48 8b 45 d8          	[33mmov    [0m[35m-[0m[35m0x28[0m([34m%rbp[0m),[34m%rax[0m
    57f7:	48 8b 40 20          	[33mmov    [0m[35m0x20[0m([34m%rax[0m),[34m%rax[0m
    57fb:	48 8b 55 e8          	[33mmov    [0m[35m-[0m[35m0x18[0m([34m%rbp[0m),[34m%rdx[0m
    57ff:	48 c1 e2 04          	[33mshl    [0m[35m$[0m[35m0x4[0m,[34m%rdx[0m
    5803:	48 01 d0             	[33madd    [0m[34m%rdx[0m,[34m%rax[0m
    5806:	48 8b 50 08          	[33mmov    [0m[35m0x8[0m([34m%rax[0m),[34m%rdx[0m
    580a:	48 8b 00             	[33mmov    [0m([34m%rax[0m),[34m%rax[0m
    580d:	48 89 45 f0          	[33mmov    [0m[34m%rax[0m,[35m-[0m[35m0x10[0m([34m%rbp[0m)
    5811:	48 89 55 f8          	[33mmov    [0m[34m%rdx[0m,[35m-[0m[35m0x8[0m([34m%rbp[0m)
    5815:	48 8b 45 f0          	[33mmov    [0m[35m-[0m[35m0x10[0m([34m%rbp[0m),[34m%rax[0m
    5819:	48 8b 55 d8          	[33mmov    [0m[35m-[0m[35m0x28[0m([34m%rbp[0m),[34m%rdx[0m
    581d:	48 8b 92 98 00 00 00 	[33mmov    [0m[35m0x98[0m([34m%rdx[0m),[34m%rdx[0m
    5824:	48 39 c2             	[33mcmp    [0m[34m%rax[0m,[34m%rdx[0m
    5827:	72 1a                	[33mjb     [0m[35m5843[0m <[32meditor_cursor_row[0m[35m+0x[0m[35m9f[0m>
    5829:	48 8b 45 d8          	[33mmov    [0m[35m-[0m[35m0x28[0m([34m%rbp[0m),[34m%rax[0m
    582d:	48 8b 80 98 00 00 00 	[33mmov    [0m[35m0x98[0m([34m%rax[0m),[34m%rax[0m
    5834:	48 8b 55 f8          	[33mmov    [0m[35m-[0m[35m0x8[0m([34m%rbp[0m),[34m%rdx[0m
    5838:	48 39 c2             	[33mcmp    [0m[34m%rax[0m,[34m%rdx[0m
    583b:	72 06                	[33mjb     [0m[35m5843[0m <[32meditor_cursor_row[0m[35m+0x[0m[35m9f[0m>
    583d:	48 8b 45 e8          	[33mmov    [0m[35m-[0m[35m0x18[0m([34m%rbp[0m),[34m%rax[0m
    5841:	eb 1f                	[33mjmp    [0m[35m5862[0m <[32meditor_cursor_row[0m[35m+0x[0m[35mbe[0m>
    5843:	48 83 45 e8 01       	[33maddq   [0m[35m$[0m[35m0x1[0m,[35m-[0m[35m0x18[0m([34m%rbp[0m)
    5848:	48 8b 45 d8          	[33mmov    [0m[35m-[0m[35m0x28[0m([34m%rbp[0m),[34m%rax[0m
    584c:	48 8b 40 28          	[33mmov    [0m[35m0x28[0m([34m%rax[0m),[34m%rax[0m
    5850:	48 39 45 e8          	[33mcmp    [0m[34m%rax[0m,[35m-[0m[35m0x18[0m([34m%rbp[0m)
    5854:	72 9d                	[33mjb     [0m[35m57f3[0m <[32meditor_cursor_row[0m[35m+0x[0m[35m4f[0m>
    5856:	48 8b 45 d8          	[33mmov    [0m[35m-[0m[35m0x28[0m([34m%rbp[0m),[34m%rax[0m
    585a:	48 8b 40 28          	[33mmov    [0m[35m0x28[0m([34m%rax[0m),[34m%rax[0m
    585e:	48 83 e8 01          	[33msub    [0m[35m$[0m[35m0x1[0m,[34m%rax[0m
    5862:	c9                   	[33mleave[0m
    5863:	c3                   	[33mret[0m

0000000000005864 <editor_move_line_up>:
    5864:	f3 0f 1e fa          	[33mendbr64[0m
    5868:	55                   	[33mpush   [0m[34m%rbp[0m
    5869:	48 89 e5             	[33mmov    [0m[34m%rsp[0m,[34m%rbp[0m
    586c:	48 83 ec 40          	[33msub    [0m[35m$[0m[35m0x40[0m,[34m%rsp[0m
    5870:	48 89 7d c8          	[33mmov    [0m[34m%rdi[0m,[35m-[0m[35m0x38[0m([34m%rbp[0m)
    5874:	48 8b 45 c8          	[33mmov    [0m[35m-[0m[35m0x38[0m([34m%rbp[0m),[34m%rax[0m
    5878:	48 89 c7             	[33mmov    [0m[34m%rax[0m,[34m%rdi[0m
    587b:	e8 bd 1c 00 00       	[33mcall   [0m[35m753d[0m <[32meditor_stop_search[0m>
    5880:	48 8b 45 c8          	[33mmov    [0m[35m-[0m[35m0x38[0m([34m%rbp[0m),[34m%rax[0m
    5884:	48 89 c7             	[33mmov    [0m[34m%rax[0m,[34m%rdi[0m
    5887:	e8 18 ff ff ff       	[33mcall   [0m[35m57a4[0m <[32meditor_cursor_row[0m>
    588c:	48 89 45 e0          	[33mmov    [0m[34m%rax[0m,[35m-[0m[35m0x20[0m([34m%rbp[0m)
    5890:	48 8b 45 c8          	[33mmov    [0m[35m-[0m[35m0x38[0m([34m%rbp[0m),[34m%rax[0m
    5894:	48 8b 90 98 00 00 00 	[33mmov    [0m[35m0x98[0m([34m%rax[0m),[34m%rdx[0m
    589b:	48 8b 45 c8          	[33mmov    [0m[35m-[0m[35m0x38[0m([34m%rbp[0m),[34m%rax[0m
    589f:	48 8b 40 20          	[33mmov    [0m[35m0x20[0m([34m%rax[0m),[34m%rax[0m
    58a3:	48 8b 4d e0          	[33mmov    [0m[35m-[0m[35m0x20[0m([34m%rbp[0m),[34m%rcx[0m
    58a7:	48 c1 e1 04          	[33mshl    [0m[35m$[0m[35m0x4[0m,[34m%rcx[0m
    58ab:	48 01 c8             	[33madd    [0m[34m%rcx[0m,[34m%rax[0m
    58ae:	48 8b 00             	[33mmov    [0m([34m%rax[0m),[34m%rax[0m
    58b1:	48 29 c2             	[33msub    [0m[34m%rax[0m,[34m%rdx[0m
    58b4:	48 89 55 d8          	[33mmov    [0m[34m%rdx[0m,[35m-[0m[35m0x28[0m([34m%rbp[0m)
    58b8:	48 83 7d e0 00       	[33mcmpq   [0m[35m$[0m[35m0x0[0m,[35m-[0m[35m0x20[0m([34m%rbp[0m)
    58bd:	74 5d                	[33mje     [0m[35m591c[0m <[32meditor_move_line_up[0m[35m+0x[0m[35mb8[0m>
    58bf:	48 8b 45 c8          	[33mmov    [0m[35m-[0m[35m0x38[0m([34m%rbp[0m),[34m%rax[0m
    58c3:	48 8b 40 20          	[33mmov    [0m[35m0x20[0m([34m%rax[0m),[34m%rax[0m
    58c7:	48 8b 55 e0          	[33mmov    [0m[35m-[0m[35m0x20[0m([34m%rbp[0m),[34m%rdx[0m
    58cb:	48 c1 e2 04          	[33mshl    [0m[35m$[0m[35m0x4[0m,[34m%rdx[0m
    58cf:	48 83 ea 10          	[33msub    [0m[35m$[0m[35m0x10[0m,[34m%rdx[0m
    58d3:	48 01 d0             	[33madd    [0m[34m%rdx[0m,[34m%rax[0m
    58d6:	48 8b 50 08          	[33mmov    [0m[35m0x8[0m([34m%rax[0m),[34m%rdx[0m
    58da:	48 8b 00             	[33mmov    [0m([34m%rax[0m),[34m%rax[0m
    58dd:	48 89 45 f0          	[33mmov    [0m[34m%rax[0m,[35m-[0m[35m0x10[0m([34m%rbp[0m)
    58e1:	48 89 55 f8          	[33mmov    [0m[34m%rdx[0m,[35m-[0m[35m0x8[0m([34m%rbp[0m)
    58e5:	48 8b 55 f8          	[33mmov    [0m[35m-[0m[35m0x8[0m([34m%rbp[0m),[34m%rdx[0m
    58e9:	48 8b 45 f0          	[33mmov    [0m[35m-[0m[35m0x10[0m([34m%rbp[0m),[34m%rax[0m
    58ed:	48 29 c2             	[33msub    [0m[34m%rax[0m,[34m%rdx[0m
    58f0:	48 89 55 e8          	[33mmov    [0m[34m%rdx[0m,[35m-[0m[35m0x18[0m([34m%rbp[0m)
    58f4:	48 8b 45 d8          	[33mmov    [0m[35m-[0m[35m0x28[0m([34m%rbp[0m),[34m%rax[0m
    58f8:	48 39 45 e8          	[33mcmp    [0m[34m%rax[0m,[35m-[0m[35m0x18[0m([34m%rbp[0m)
    58fc:	73 08                	[33mjae    [0m[35m5906[0m <[32meditor_move_line_up[0m[35m+0x[0m[35ma2[0m>
    58fe:	48 8b 45 e8          	[33mmov    [0m[35m-[0m[35m0x18[0m([34m%rbp[0m),[34m%rax[0m
    5902:	48 89 45 d8          	[33mmov    [0m[34m%rax[0m,[35m-[0m[35m0x28[0m([34m%rbp[0m)
    5906:	48 8b 55 f0          	[33mmov    [0m[35m-[0m[35m0x10[0m([34m%rbp[0m),[34m%rdx[0m
    590a:	48 8b 45 d8          	[33mmov    [0m[35m-[0m[35m0x28[0m([34m%rbp[0m),[34m%rax[0m
    590e:	48 01 c2             	[33madd    [0m[34m%rax[0m,[34m%rdx[0m
    5911:	48 8b 45 c8          	[33mmov    [0m[35m-[0m[35m0x38[0m([34m%rbp[0m),[34m%rax[0m
    5915:	48 89 90 98 00 00 00 	[33mmov    [0m[34m%rdx[0m,[35m0x98[0m([34m%rax[0m)
    591c:	90                   	[33mnop[0m
    591d:	c9                   	[33mleave[0m
    591e:	c3                   	[33mret[0m

000000000000591f <editor_move_line_down>:
    591f:	f3 0f 1e fa          	[33mendbr64[0m
    5923:	55                   	[33mpush   [0m[34m%rbp[0m
    5924:	48 89 e5             	[33mmov    [0m[34m%rsp[0m,[34m%rbp[0m
    5927:	48 83 ec 40          	[33msub    [0m[35m$[0m[35m0x40[0m,[34m%rsp[0m
    592b:	48 89 7d c8          	[33mmov    [0m[34m%rdi[0m,[35m-[0m[35m0x38[0m([34m%rbp[0m)
    592f:	48 8b 45 c8          	[33mmov    [0m[35m-[0m[35m0x38[0m([34m%rbp[0m),[34m%rax[0m
    5933:	48 89 c7             	[33mmov    [0m[34m%rax[0m,[34m%rdi[0m
    5936:	e8 02 1c 00 00       	[33mcall   [0m[35m753d[0m <[32meditor_stop_search[0m>
    593b:	48 8b 45 c8          	[33mmov    [0m[35m-[0m[35m0x38[0m([34m%rbp[0m),[34m%rax[0m
    593f:	48 89 c7             	[33mmov    [0m[34m%rax[0m,[34m%rdi[0m
    5942:	e8 5d fe ff ff       	[33mcall   [0m[35m57a4[0m <[32meditor_cursor_row[0m>
    5947:	48 89 45 e0          	[33mmov    [0m[34m%rax[0m,[35m-[0m[35m0x20[0m([34m%rbp[0m)
    594b:	48 8b 45 c8          	[33mmov    [0m[35m-[0m[35m0x38[0m([34m%rbp[0m),[34m%rax[0m
    594f:	48 8b 90 98 00 00 00 	[33mmov    [0m[35m0x98[0m([34m%rax[0m),[34m%rdx[0m
    5956:	48 8b 45 c8          	[33mmov    [0m[35m-[0m[35m0x38[0m([34m%rbp[0m),[34m%rax[0m
    595a:	48 8b 40 20          	[33mmov    [0m[35m0x20[0m([34m%rax[0m),[34m%rax[0m
    595e:	48 8b 4d e0          	[33mmov    [0m[35m-[0m[35m0x20[0m([34m%rbp[0m),[34m%rcx[0m
    5962:	48 c1 e1 04          	[33mshl    [0m[35m$[0m[35m0x4[0m,[34m%rcx[0m
    5966:	48 01 c8             	[33madd    [0m[34m%rcx[0m,[34m%rax[0m
    5969:	48 8b 00             	[33mmov    [0m([34m%rax[0m),[34m%rax[0m
    596c:	48 29 c2             	[33msub    [0m[34m%rax[0m,[34m%rdx[0m
    596f:	48 89 55 d8          	[33mmov    [0m[34m%rdx[0m,[35m-[0m[35m0x28[0m([34m%rbp[0m)
    5973:	48 8b 45 c8          	[33mmov    [0m[35m-[0m[35m0x38[0m([34m%rbp[0m),[34m%rax[0m
    5977:	48 8b 40 28          	[33mmov    [0m[35m0x28[0m([34m%rax[0m),[34m%rax[0m
    597b:	48 83 e8 01          	[33msub    [0m[35m$[0m[35m0x1[0m,[34m%rax[0m
    597f:	48 39 45 e0          	[33mcmp    [0m[34m%rax[0m,[35m-[0m[35m0x20[0m([34m%rbp[0m)
    5983:	73 5d                	[33mjae    [0m[35m59e2[0m <[32meditor_move_line_down[0m[35m+0x[0m[35mc3[0m>
    5985:	48 8b 45 c8          	[33mmov    [0m[35m-[0m[35m0x38[0m([34m%rbp[0m),[34m%rax[0m
    5989:	48 8b 40 20          	[33mmov    [0m[35m0x20[0m([34m%rax[0m),[34m%rax[0m
    598d:	48 8b 55 e0          	[33mmov    [0m[35m-[0m[35m0x20[0m([34m%rbp[0m),[34m%rdx[0m
    5991:	48 83 c2 01          	[33madd    [0m[35m$[0m[35m0x1[0m,[34m%rdx[0m
    5995:	48 c1 e2 04          	[33mshl    [0m[35m$[0m[35m0x4[0m,[34m%rdx[0m
    5999:	48 01 d0             	[33madd    [0m[34m%rdx[0m,[34m%rax[0m
    599c:	48 8b 50 08          	[33mmov    [0m[35m0x8[0m([34m%rax[0m),[34m%rdx[0m
    59a0:	48 8b 00             	[33mmov    [0m([34m%rax[0m),[34m%rax[0m
    59a3:	48 89 45 f0          	[33mmov    [0m[34m%rax[0m,[35m-[0m[35m0x10[0m([34m%rbp[0m)
    59a7:	48 89 55 f8          	[33mmov    [0m[34m%rdx[0m,[35m-[0m[35m0x8[0m([34m%rbp[0m)
    59ab:	48 8b 55 f8          	[33mmov    [0m[35m-[0m[35m0x8[0m([34m%rbp[0m),[34m%rdx[0m
    59af:	48 8b 45 f0          	[33mmov    [0m[35m-[0m[35m0x10[0m([34m%rbp[0m),[34m%rax[0m
    59b3:	48 29 c2             	[33msub    [0m[34m%rax[0m,[34m%rdx[0m
    59b6:	48 89 55 e8          	[33mmov    [0m[34m%rdx[0m,[35m-[0m[35m0x18[0m([34m%rbp[0m)
    59ba:	48 8b 45 d8          	[33mmov    [0m[35m-[0m[35m0x28[0m([34m%rbp[0m),[34m%rax[0m
    59be:	48 39 45 e8          	[33mcmp    [0m[34m%rax[0m,[35m-[0m[35m0x18[0m([34m%rbp[0m)
    59c2:	73 08                	[33mjae    [0m[35m59cc[0m <[32meditor_move_line_down[0m[35m+0x[0m[35mad[0m>
    59c4:	48 8b 45 e8          	[33mmov    [0m[35m-[0m[35m0x18[0m([34m%rbp[0m),[34m%rax[0m
    59c8:	48 89 45 d8          	[33mmov    [0m[34m%rax[0m,[35m-[0m[35m0x28[0m([34m%rbp[0m)
    59cc:	48 8b 55 f0          	[33mmov    [0m[35m-[0m[35m0x10[0m([34m%rbp[0m),[34m%rdx[0m
    59d0:	48 8b 45 d8          	[33mmov    [0m[35m-[0m[35m0x28[0m([34m%rbp[0m),[34m%rax[0m
    59d4:	48 01 c2             	[33madd    [0m[34m%rax[0m,[34m%rdx[0m
    59d7:	48 8b 45 c8          	[33mmov    [0m[35m-[0m[35m0x38[0m([34m%rbp[0m),[34m%rax[0m
    59db:	48 89 90 98 00 00 00 	[33mmov    [0m[34m%rdx[0m,[35m0x98[0m([34m%rax[0m)
    59e2:	90                   	[33mnop[0m
    59e3:	c9                   	[33mleave[0m
    59e4:	c3                   	[33mret[0m

00000000000059e5 <editor_move_char_left>:
    59e5:	f3 0f 1e fa          	[33mendbr64[0m
    59e9:	55                   	[33mpush   [0m[34m%rbp[0m
    59ea:	48 89 e5             	[33mmov    [0m[34m%rsp[0m,[34m%rbp[0m
    59ed:	48 83 ec 10          	[33msub    [0m[35m$[0m[35m0x10[0m,[34m%rsp[0m
    59f1:	48 89 7d f8          	[33mmov    [0m[34m%rdi[0m,[35m-[0m[35m0x8[0m([34m%rbp[0m)
    59f5:	48 8b 45 f8          	[33mmov    [0m[35m-[0m[35m0x8[0m([34m%rbp[0m),[34m%rax[0m
    59f9:	48 89 c7             	[33mmov    [0m[34m%rax[0m,[34m%rdi[0m
    59fc:	e8 3c 1b 00 00       	[33mcall   [0m[35m753d[0m <[32meditor_stop_search[0m>
    5a01:	48 8b 45 f8          	[33mmov    [0m[35m-[0m[35m0x8[0m([34m%rbp[0m),[34m%rax[0m
    5a05:	48 8b 80 98 00 00 00 	[33mmov    [0m[35m0x98[0m([34m%rax[0m),[34m%rax[0m
    5a0c:	48 85 c0             	[33mtest   [0m[34m%rax[0m,[34m%rax[0m
    5a0f:	74 1a                	[33mje     [0m[35m5a2b[0m <[32meditor_move_char_left[0m[35m+0x[0m[35m46[0m>
    5a11:	48 8b 45 f8          	[33mmov    [0m[35m-[0m[35m0x8[0m([34m%rbp[0m),[34m%rax[0m
    5a15:	48 8b 80 98 00 00 00 	[33mmov    [0m[35m0x98[0m([34m%rax[0m),[34m%rax[0m
    5a1c:	48 8d 50 ff          	[33mlea    [0m[35m-[0m[35m0x1[0m([34m%rax[0m),[34m%rdx[0m
    5a20:	48 8b 45 f8          	[33mmov    [0m[35m-[0m[35m0x8[0m([34m%rbp[0m),[34m%rax[0m
    5a24:	48 89 90 98 00 00 00 	[33mmov    [0m[34m%rdx[0m,[35m0x98[0m([34m%rax[0m)
    5a2b:	90                   	[33mnop[0m
    5a2c:	c9                   	[33mleave[0m
    5a2d:	c3                   	[33mret[0m

0000000000005a2e <editor_move_char_right>:
    5a2e:	f3 0f 1e fa          	[33mendbr64[0m
    5a32:	55                   	[33mpush   [0m[34m%rbp[0m
    5a33:	48 89 e5             	[33mmov    [0m[34m%rsp[0m,[34m%rbp[0m
    5a36:	48 83 ec 10          	[33msub    [0m[35m$[0m[35m0x10[0m,[34m%rsp[0m
    5a3a:	48 89 7d f8          	[33mmov    [0m[34m%rdi[0m,[35m-[0m[35m0x8[0m([34m%rbp[0m)
    5a3e:	48 8b 45 f8          	[33mmov    [0m[35m-[0m[35m0x8[0m([34m%rbp[0m),[34m%rax[0m
    5a42:	48 89 c7             	[33mmov    [0m[34m%rax[0m,[34m%rdi[0m
    5a45:	e8 f3 1a 00 00       	[33mcall   [0m[35m753d[0m <[32meditor_stop_search[0m>
    5a4a:	48 8b 45 f8          	[33mmov    [0m[35m-[0m[35m0x8[0m([34m%rbp[0m),[34m%rax[0m
    5a4e:	48 8b 90 98 00 00 00 	[33mmov    [0m[35m0x98[0m([34m%rax[0m),[34m%rdx[0m
    5a55:	48 8b 45 f8          	[33mmov    [0m[35m-[0m[35m0x8[0m([34m%rbp[0m),[34m%rax[0m
    5a59:	48 8b 40 10          	[33mmov    [0m[35m0x10[0m([34m%rax[0m),[34m%rax[0m
    5a5d:	48 39 c2             	[33mcmp    [0m[34m%rax[0m,[34m%rdx[0m
    5a60:	73 1a                	[33mjae    [0m[35m5a7c[0m <[32meditor_move_char_right[0m[35m+0x[0m[35m4e[0m>
    5a62:	48 8b 45 f8          	[33mmov    [0m[35m-[0m[35m0x8[0m([34m%rbp[0m),[34m%rax[0m
    5a66:	48 8b 80 98 00 00 00 	[33mmov    [0m[35m0x98[0m([34m%rax[0m),[34m%rax[0m
    5a6d:	48 8d 50 01          	[33mlea    [0m[35m0x1[0m([34m%rax[0m),[34m%rdx[0m
    5a71:	48 8b 45 f8          	[33mmov    [0m[35m-[0m[35m0x8[0m([34m%rbp[0m),[34m%rax[0m
    5a75:	48 89 90 98 00 00 00 	[33mmov    [0m[34m%rdx[0m,[35m0x98[0m([34m%rax[0m)
    5a7c:	90                   	[33mnop[0m
    5a7d:	c9                   	[33mleave[0m
    5a7e:	c3                   	[33mret[0m

0000000000005a7f <editor_move_word_left>:
    5a7f:	f3 0f 1e fa          	[33mendbr64[0m
    5a83:	55                   	[33mpush   [0m[34m%rbp[0m
    5a84:	48 89 e5             	[33mmov    [0m[34m%rsp[0m,[34m%rbp[0m
    5a87:	48 83 ec 10          	[33msub    [0m[35m$[0m[35m0x10[0m,[34m%rsp[0m
    5a8b:	48 89 7d f8          	[33mmov    [0m[34m%rdi[0m,[35m-[0m[35m0x8[0m([34m%rbp[0m)
    5a8f:	48 8b 45 f8          	[33mmov    [0m[35m-[0m[35m0x8[0m([34m%rbp[0m),[34m%rax[0m
    5a93:	48 89 c7             	[33mmov    [0m[34m%rax[0m,[34m%rdi[0m
    5a96:	e8 a2 1a 00 00       	[33mcall   [0m[35m753d[0m <[32meditor_stop_search[0m>
    5a9b:	eb 1a                	[33mjmp    [0m[35m5ab7[0m <[32meditor_move_word_left[0m[35m+0x[0m[35m38[0m>
    5a9d:	48 8b 45 f8          	[33mmov    [0m[35m-[0m[35m0x8[0m([34m%rbp[0m),[34m%rax[0m
    5aa1:	48 8b 80 98 00 00 00 	[33mmov    [0m[35m0x98[0m([34m%rax[0m),[34m%rax[0m
    5aa8:	48 8d 50 ff          	[33mlea    [0m[35m-[0m[35m0x1[0m([34m%rax[0m),[34m%rdx[0m
    5aac:	48 8b 45 f8          	[33mmov    [0m[35m-[0m[35m0x8[0m([34m%rbp[0m),[34m%rax[0m
    5ab0:	48 89 90 98 00 00 00 	[33mmov    [0m[34m%rdx[0m,[35m0x98[0m([34m%rax[0m)
    5ab7:	48 8b 45 f8          	[33mmov    [0m[35m-[0m[35m0x8[0m([34m%rbp[0m),[34m%rax[0m
    5abb:	48 8b 80 98 00 00 00 	[33mmov    [0m[35m0x98[0m([34m%rax[0m),[34m%rax[0m
    5ac2:	48 85 c0             	[33mtest   [0m[34m%rax[0m,[34m%rax[0m
    5ac5:	74 58                	[33mje     [0m[35m5b1f[0m <[32meditor_move_word_left[0m[35m+0x[0m[35ma0[0m>
    5ac7:	e8 d4 da ff ff       	[33mcall   [0m[35m35a0[0m <[32m__ctype_b_loc@plt[0m>
    5acc:	48 8b 10             	[33mmov    [0m([34m%rax[0m),[34m%rdx[0m
    5acf:	48 8b 45 f8          	[33mmov    [0m[35m-[0m[35m0x8[0m([34m%rbp[0m),[34m%rax[0m
    5ad3:	48 8b 48 08          	[33mmov    [0m[35m0x8[0m([34m%rax[0m),[34m%rcx[0m
    5ad7:	48 8b 45 f8          	[33mmov    [0m[35m-[0m[35m0x8[0m([34m%rbp[0m),[34m%rax[0m
    5adb:	48 8b 80 98 00 00 00 	[33mmov    [0m[35m0x98[0m([34m%rax[0m),[34m%rax[0m
    5ae2:	48 83 e8 01          	[33msub    [0m[35m$[0m[35m0x1[0m,[34m%rax[0m
    5ae6:	48 01 c8             	[33madd    [0m[34m%rcx[0m,[34m%rax[0m
    5ae9:	0f b6 00             	[33mmovzbl [0m([34m%rax[0m),[34m%eax[0m
    5aec:	48 0f be c0          	[33mmovsbq [0m[34m%al[0m,[34m%rax[0m
    5af0:	48 01 c0             	[33madd    [0m[34m%rax[0m,[34m%rax[0m
    5af3:	48 01 d0             	[33madd    [0m[34m%rdx[0m,[34m%rax[0m
    5af6:	0f b7 00             	[33mmovzwl [0m([34m%rax[0m),[34m%eax[0m
    5af9:	0f b7 c0             	[33mmovzwl [0m[34m%ax[0m,[34m%eax[0m
    5afc:	83 e0 08             	[33mand    [0m[35m$[0m[35m0x8[0m,[34m%eax[0m
    5aff:	85 c0                	[33mtest   [0m[34m%eax[0m,[34m%eax[0m
    5b01:	74 9a                	[33mje     [0m[35m5a9d[0m <[32meditor_move_word_left[0m[35m+0x[0m[35m1e[0m>
    5b03:	eb 1a                	[33mjmp    [0m[35m5b1f[0m <[32meditor_move_word_left[0m[35m+0x[0m[35ma0[0m>
    5b05:	48 8b 45 f8          	[33mmov    [0m[35m-[0m[35m0x8[0m([34m%rbp[0m),[34m%rax[0m
    5b09:	48 8b 80 98 00 00 00 	[33mmov    [0m[35m0x98[0m([34m%rax[0m),[34m%rax[0m
    5b10:	48 8d 50 ff          	[33mlea    [0m[35m-[0m[35m0x1[0m([34m%rax[0m),[34m%rdx[0m
    5b14:	48 8b 45 f8          	[33mmov    [0m[35m-[0m[35m0x8[0m([34m%rbp[0m),[34m%rax[0m
    5b18:	48 89 90 98 00 00 00 	[33mmov    [0m[34m%rdx[0m,[35m0x98[0m([34m%rax[0m)
    5b1f:	48 8b 45 f8          	[33mmov    [0m[35m-[0m[35m0x8[0m([34m%rbp[0m),[34m%rax[0m
    5b23:	48 8b 80 98 00 00 00 	[33mmov    [0m[35m0x98[0m([34m%rax[0m),[34m%rax[0m
    5b2a:	48 85 c0             	[33mtest   [0m[34m%rax[0m,[34m%rax[0m
    5b2d:	74 3c                	[33mje     [0m[35m5b6b[0m <[32meditor_move_word_left[0m[35m+0x[0m[35mec[0m>
    5b2f:	e8 6c da ff ff       	[33mcall   [0m[35m35a0[0m <[32m__ctype_b_loc@plt[0m>
    5b34:	48 8b 10             	[33mmov    [0m([34m%rax[0m),[34m%rdx[0m
    5b37:	48 8b 45 f8          	[33mmov    [0m[35m-[0m[35m0x8[0m([34m%rbp[0m),[34m%rax[0m
    5b3b:	48 8b 48 08          	[33mmov    [0m[35m0x8[0m([34m%rax[0m),[34m%rcx[0m
    5b3f:	48 8b 45 f8          	[33mmov    [0m[35m-[0m[35m0x8[0m([34m%rbp[0m),[34m%rax[0m
    5b43:	48 8b 80 98 00 00 00 	[33mmov    [0m[35m0x98[0m([34m%rax[0m),[34m%rax[0m
    5b4a:	48 83 e8 01          	[33msub    [0m[35m$[0m[35m0x1[0m,[34m%rax[0m
    5b4e:	48 01 c8             	[33madd    [0m[34m%rcx[0m,[34m%rax[0m
    5b51:	0f b6 00             	[33mmovzbl [0m([34m%rax[0m),[34m%eax[0m
    5b54:	48 0f be c0          	[33mmovsbq [0m[34m%al[0m,[34m%rax[0m
    5b58:	48 01 c0             	[33madd    [0m[34m%rax[0m,[34m%rax[0m
    5b5b:	48 01 d0             	[33madd    [0m[34m%rdx[0m,[34m%rax[0m
    5b5e:	0f b7 00             	[33mmovzwl [0m([34m%rax[0m),[34m%eax[0m
    5b61:	0f b7 c0             	[33mmovzwl [0m[34m%ax[0m,[34m%eax[0m
    5b64:	83 e0 08             	[33mand    [0m[35m$[0m[35m0x8[0m,[34m%eax[0m
    5b67:	85 c0                	[33mtest   [0m[34m%eax[0m,[34m%eax[0m
    5b69:	75 9a                	[33mjne    [0m[35m5b05[0m <[32meditor_move_word_left[0m[35m+0x[0m[35m86[0m>
    5b6b:	90                   	[33mnop[0m
    5b6c:	c9                   	[33mleave[0m
    5b6d:	c3                   	[33mret[0m

0000000000005b6e <editor_move_word_right>:
    5b6e:	f3 0f 1e fa          	[33mendbr64[0m
    5b72:	55                   	[33mpush   [0m[34m%rbp[0m
    5b73:	48 89 e5             	[33mmov    [0m[34m%rsp[0m,[34m%rbp[0m
    5b76:	48 83 ec 10          	[33msub    [0m[35m$[0m[35m0x10[0m,[34m%rsp[0m
    5b7a:	48 89 7d f8          	[33mmov    [0m[34m%rdi[0m,[35m-[0m[35m0x8[0m([34m%rbp[0m)
    5b7e:	48 8b 45 f8          	[33mmov    [0m[35m-[0m[35m0x8[0m([34m%rbp[0m),[34m%rax[0m
    5b82:	48 89 c7             	[33mmov    [0m[34m%rax[0m,[34m%rdi[0m
    5b85:	e8 b3 19 00 00       	[33mcall   [0m[35m753d[0m <[32meditor_stop_search[0m>
    5b8a:	eb 1a                	[33mjmp    [0m[35m5ba6[0m <[32meditor_move_word_right[0m[35m+0x[0m[35m38[0m>
    5b8c:	48 8b 45 f8          	[33mmov    [0m[35m-[0m[35m0x8[0m([34m%rbp[0m),[34m%rax[0m
    5b90:	48 8b 80 98 00 00 00 	[33mmov    [0m[35m0x98[0m([34m%rax[0m),[34m%rax[0m
    5b97:	48 8d 50 01          	[33mlea    [0m[35m0x1[0m([34m%rax[0m),[34m%rdx[0m
    5b9b:	48 8b 45 f8          	[33mmov    [0m[35m-[0m[35m0x8[0m([34m%rbp[0m),[34m%rax[0m
    5b9f:	48 89 90 98 00 00 00 	[33mmov    [0m[34m%rdx[0m,[35m0x98[0m([34m%rax[0m)
    5ba6:	48 8b 45 f8          	[33mmov    [0m[35m-[0m[35m0x8[0m([34m%rbp[0m),[34m%rax[0m
    5baa:	48 8b 90 98 00 00 00 	[33mmov    [0m[35m0x98[0m([34m%rax[0m),[34m%rdx[0m
    5bb1:	48 8b 45 f8          	[33mmov    [0m[35m-[0m[35m0x8[0m([34m%rbp[0m),[34m%rax[0m
    5bb5:	48 8b 40 10          	[33mmov    [0m[35m0x10[0m([34m%rax[0m),[34m%rax[0m
    5bb9:	48 39 c2             	[33mcmp    [0m[34m%rax[0m,[34m%rdx[0m
    5bbc:	73 54                	[33mjae    [0m[35m5c12[0m <[32meditor_move_word_right[0m[35m+0x[0m[35ma4[0m>
    5bbe:	e8 dd d9 ff ff       	[33mcall   [0m[35m35a0[0m <[32m__ctype_b_loc@plt[0m>
    5bc3:	48 8b 10             	[33mmov    [0m([34m%rax[0m),[34m%rdx[0m
    5bc6:	48 8b 45 f8          	[33mmov    [0m[35m-[0m[35m0x8[0m([34m%rbp[0m),[34m%rax[0m
    5bca:	48 8b 48 08          	[33mmov    [0m[35m0x8[0m([34m%rax[0m),[34m%rcx[0m
    5bce:	48 8b 45 f8          	[33mmov    [0m[35m-[0m[35m0x8[0m([34m%rbp[0m),[34m%rax[0m
    5bd2:	48 8b 80 98 00 00 00 	[33mmov    [0m[35m0x98[0m([34m%rax[0m),[34m%rax[0m
    5bd9:	48 01 c8             	[33madd    [0m[34m%rcx[0m,[34m%rax[0m
    5bdc:	0f b6 00             	[33mmovzbl [0m([34m%rax[0m),[34m%eax[0m
    5bdf:	48 0f be c0          	[33mmovsbq [0m[34m%al[0m,[34m%rax[0m
    5be3:	48 01 c0             	[33madd    [0m[34m%rax[0m,[34m%rax[0m
    5be6:	48 01 d0             	[33madd    [0m[34m%rdx[0m,[34m%rax[0m
    5be9:	0f b7 00             	[33mmovzwl [0m([34m%rax[0m),[34m%eax[0m
    5bec:	0f b7 c0             	[33mmovzwl [0m[34m%ax[0m,[34m%eax[0m
    5bef:	83 e0 08             	[33mand    [0m[35m$[0m[35m0x8[0m,[34m%eax[0m
    5bf2:	85 c0                	[33mtest   [0m[34m%eax[0m,[34m%eax[0m
    5bf4:	74 96                	[33mje     [0m[35m5b8c[0m <[32meditor_move_word_right[0m[35m+0x[0m[35m1e[0m>
    5bf6:	eb 1a                	[33mjmp    [0m[35m5c12[0m <[32meditor_move_word_right[0m[35m+0x[0m[35ma4[0m>
    5bf8:	48 8b 45 f8          	[33mmov    [0m[35m-[0m[35m0x8[0m([34m%rbp[0m),[34m%rax[0m
    5bfc:	48 8b 80 98 00 00 00 	[33mmov    [0m[35m0x98[0m([34m%rax[0m),[34m%rax[0m
    5c03:	48 8d 50 01          	[33mlea    [0m[35m0x1[0m([34m%rax[0m),[34m%rdx[0m
    5c07:	48 8b 45 f8          	[33mmov    [0m[35m-[0m[35m0x8[0m([34m%rbp[0m),[34m%rax[0m
    5c0b:	48 89 90 98 00 00 00 	[33mmov    [0m[34m%rdx[0m,[35m0x98[0m([34m%rax[0m)
    5c12:	48 8b 45 f8          	[33mmov    [0m[35m-[0m[35m0x8[0m([34m%rbp[0m),[34m%rax[0m
    5c16:	48 8b 90 98 00 00 00 	[33mmov    [0m[35m0x98[0m([34m%rax[0m),[34m%rdx[0m
    5c1d:	48 8b 45 f8          	[33mmov    [0m[35m-[0m[35m0x8[0m([34m%rbp[0m),[34m%rax[0m
    5c21:	48 8b 40 10          	[33mmov    [0m[35m0x10[0m([34m%rax[0m),[34m%rax[0m
    5c25:	48 39 c2             	[33mcmp    [0m[34m%rax[0m,[34m%rdx[0m
    5c28:	73 38                	[33mjae    [0m[35m5c62[0m <[32meditor_move_word_right[0m[35m+0x[0m[35mf4[0m>
    5c2a:	e8 71 d9 ff ff       	[33mcall   [0m[35m35a0[0m <[32m__ctype_b_loc@plt[0m>
    5c2f:	48 8b 10             	[33mmov    [0m([34m%rax[0m),[34m%rdx[0m
    5c32:	48 8b 45 f8          	[33mmov    [0m[35m-[0m[35m0x8[0m([34m%rbp[0m),[34m%rax[0m
    5c36:	48 8b 48 08          	[33mmov    [0m[35m0x8[0m([34m%rax[0m),[34m%rcx[0m
    5c3a:	48 8b 45 f8          	[33mmov    [0m[35m-[0m[35m0x8[0m([34m%rbp[0m),[34m%rax[0m
    5c3e:	48 8b 80 98 00 00 00 	[33mmov    [0m[35m0x98[0m([34m%rax[0m),[34m%rax[0m
    5c45:	48 01 c8             	[33madd    [0m[34m%rcx[0m,[34m%rax[0m
    5c48:	0f b6 00             	[33mmovzbl [0m([34m%rax[0m),[34m%eax[0m
    5c4b:	48 0f be c0          	[33mmovsbq [0m[34m%al[0m,[34m%rax[0m
    5c4f:	48 01 c0             	[33madd    [0m[34m%rax[0m,[34m%rax[0m
    5c52:	48 01 d0             	[33madd    [0m[34m%rdx[0m,[34m%rax[0m
    5c55:	0f b7 00             	[33mmovzwl [0m([34m%rax[0m),[34m%eax[0m
    5c58:	0f b7 c0             	[33mmovzwl [0m[34m%ax[0m,[34m%eax[0m
    5c5b:	83 e0 08             	[33mand    [0m[35m$[0m[35m0x8[0m,[34m%eax[0m
    5c5e:	85 c0                	[33mtest   [0m[34m%eax[0m,[34m%eax[0m
    5c60:	75 96                	[33mjne    [0m[35m5bf8[0m <[32meditor_move_word_right[0m[35m+0x[0m[35m8a[0m>
    5c62:	90                   	[33mnop[0m
    5c63:	c9                   	[33mleave[0m
    5c64:	c3                   	[33mret[0m

0000000000005c65 <editor_insert_char>:
    5c65:	f3 0f 1e fa          	[33mendbr64[0m
    5c69:	55                   	[33mpush   [0m[34m%rbp[0m
    5c6a:	48 89 e5             	[33mmov    [0m[34m%rsp[0m,[34m%rbp[0m
    5c6d:	48 83 ec 10          	[33msub    [0m[35m$[0m[35m0x10[0m,[34m%rsp[0m
    5c71:	48 89 7d f8          	[33mmov    [0m[34m%rdi[0m,[35m-[0m[35m0x8[0m([34m%rbp[0m)
    5c75:	89 f0                	[33mmov    [0m[34m%esi[0m,[34m%eax[0m
    5c77:	88 45 f4             	[33mmov    [0m[34m%al[0m,[35m-[0m[35m0xc[0m([34m%rbp[0m)
    5c7a:	48 8d 4d f4          	[33mlea    [0m[35m-[0m[35m0xc[0m([34m%rbp[0m),[34m%rcx[0m
    5c7e:	48 8b 45 f8          	[33mmov    [0m[35m-[0m[35m0x8[0m([34m%rbp[0m),[34m%rax[0m
    5c82:	ba 01 00 00 00       	[33mmov    [0m[35m$[0m[35m0x1[0m,[34m%edx[0m
    5c87:	48 89 ce             	[33mmov    [0m[34m%rcx[0m,[34m%rsi[0m
    5c8a:	48 89 c7             	[33mmov    [0m[34m%rax[0m,[34m%rdi[0m
    5c8d:	e8 03 00 00 00       	[33mcall   [0m[35m5c95[0m <[32meditor_insert_buf[0m>
    5c92:	90                   	[33mnop[0m
    5c93:	c9                   	[33mleave[0m
    5c94:	c3                   	[33mret[0m

0000000000005c95 <editor_insert_buf>:
    5c95:	f3 0f 1e fa          	[33mendbr64[0m
    5c99:	55                   	[33mpush   [0m[34m%rbp[0m
    5c9a:	48 89 e5             	[33mmov    [0m[34m%rsp[0m,[34m%rbp[0m
    5c9d:	48 83 ec 40          	[33msub    [0m[35m$[0m[35m0x40[0m,[34m%rsp[0m
    5ca1:	48 89 7d d8          	[33mmov    [0m[34m%rdi[0m,[35m-[0m[35m0x28[0m([34m%rbp[0m)
    5ca5:	48 89 75 d0          	[33mmov    [0m[34m%rsi[0m,[35m-[0m[35m0x30[0m([34m%rbp[0m)
    5ca9:	48 89 55 c8          	[33mmov    [0m[34m%rdx[0m,[35m-[0m[35m0x38[0m([34m%rbp[0m)
    5cad:	48 8b 45 d8          	[33mmov    [0m[35m-[0m[35m0x28[0m([34m%rbp[0m),[34m%rax[0m
    5cb1:	0f b6 40 68          	[33mmovzbl [0m[35m0x68[0m([34m%rax[0m),[34m%eax[0m
    5cb5:	84 c0                	[33mtest   [0m[34m%al[0m,[34m%al[0m
    5cb7:	0f 84 95 01 00 00    	[33mje     [0m[35m5e52[0m <[32meditor_insert_buf[0m[35m+0x[0m[35m1bd[0m>
    5cbd:	48 8b 45 d8          	[33mmov    [0m[35m-[0m[35m0x28[0m([34m%rbp[0m),[34m%rax[0m
    5cc1:	48 8b 50 78          	[33mmov    [0m[35m0x78[0m([34m%rax[0m),[34m%rdx[0m
    5cc5:	48 8b 45 c8          	[33mmov    [0m[35m-[0m[35m0x38[0m([34m%rbp[0m),[34m%rax[0m
    5cc9:	48 01 c2             	[33madd    [0m[34m%rax[0m,[34m%rdx[0m
    5ccc:	48 8b 45 d8          	[33mmov    [0m[35m-[0m[35m0x28[0m([34m%rbp[0m),[34m%rax[0m
    5cd0:	48 8b 80 80 00 00 00 	[33mmov    [0m[35m0x80[0m([34m%rax[0m),[34m%rax[0m
    5cd7:	48 39 d0             	[33mcmp    [0m[34m%rdx[0m,[34m%rax[0m
    5cda:	0f 83 b5 00 00 00    	[33mjae    [0m[35m5d95[0m <[32meditor_insert_buf[0m[35m+0x[0m[35m100[0m>
    5ce0:	48 8b 45 d8          	[33mmov    [0m[35m-[0m[35m0x28[0m([34m%rbp[0m),[34m%rax[0m
    5ce4:	48 8b 80 80 00 00 00 	[33mmov    [0m[35m0x80[0m([34m%rax[0m),[34m%rax[0m
    5ceb:	48 85 c0             	[33mtest   [0m[34m%rax[0m,[34m%rax[0m
    5cee:	75 2b                	[33mjne    [0m[35m5d1b[0m <[32meditor_insert_buf[0m[35m+0x[0m[35m86[0m>
    5cf0:	48 8b 45 d8          	[33mmov    [0m[35m-[0m[35m0x28[0m([34m%rbp[0m),[34m%rax[0m
    5cf4:	48 c7 80 80 00 00 00 	[33mmovq   [0m[35m$[0m[35m0x100[0m,[35m0x80[0m([34m%rax[0m)
    5cfb:	00 01 00 00 
    5cff:	eb 1a                	[33mjmp    [0m[35m5d1b[0m <[32meditor_insert_buf[0m[35m+0x[0m[35m86[0m>
    5d01:	48 8b 45 d8          	[33mmov    [0m[35m-[0m[35m0x28[0m([34m%rbp[0m),[34m%rax[0m
    5d05:	48 8b 80 80 00 00 00 	[33mmov    [0m[35m0x80[0m([34m%rax[0m),[34m%rax[0m
